ARM GAS  C:\Users\simon\AppData\Local\Temp\cc9kiOsk.s 			page 1


   1              		.cpu cortex-m7
   2              		.arch armv7e-m
   3              		.fpu fpv5-d16
   4              		.eabi_attribute 28, 1
   5              		.eabi_attribute 20, 1
   6              		.eabi_attribute 21, 1
   7              		.eabi_attribute 23, 3
   8              		.eabi_attribute 24, 1
   9              		.eabi_attribute 25, 1
  10              		.eabi_attribute 26, 1
  11              		.eabi_attribute 30, 1
  12              		.eabi_attribute 34, 1
  13              		.eabi_attribute 18, 4
  14              		.file	"tim.c"
  15              		.text
  16              	.Ltext0:
  17              		.cfi_sections	.debug_frame
  18              		.section	.text.MX_TIM1_Init,"ax",%progbits
  19              		.align	1
  20              		.global	MX_TIM1_Init
  21              		.syntax unified
  22              		.thumb
  23              		.thumb_func
  25              	MX_TIM1_Init:
  26              	.LFB331:
  27              		.file 1 "Src/tim.c"
   1:Src/tim.c     **** /**
   2:Src/tim.c     ****   ******************************************************************************
   3:Src/tim.c     ****   * @file    tim.c
   4:Src/tim.c     ****   * @brief   This file provides code for the configuration
   5:Src/tim.c     ****   *          of the TIM instances.
   6:Src/tim.c     ****   ******************************************************************************
   7:Src/tim.c     ****   * @attention
   8:Src/tim.c     ****   *
   9:Src/tim.c     ****   * <h2><center>&copy; Copyright (c) 2026 STMicroelectronics.
  10:Src/tim.c     ****   * All rights reserved.</center></h2>
  11:Src/tim.c     ****   *
  12:Src/tim.c     ****   * This software component is licensed by ST under BSD 3-Clause license,
  13:Src/tim.c     ****   * the "License"; You may not use this file except in compliance with the
  14:Src/tim.c     ****   * License. You may obtain a copy of the License at:
  15:Src/tim.c     ****   *                        opensource.org/licenses/BSD-3-Clause
  16:Src/tim.c     ****   *
  17:Src/tim.c     ****   ******************************************************************************
  18:Src/tim.c     ****   */
  19:Src/tim.c     **** 
  20:Src/tim.c     **** /* Includes ------------------------------------------------------------------*/
  21:Src/tim.c     **** #include "tim.h"
  22:Src/tim.c     **** 
  23:Src/tim.c     **** /* USER CODE BEGIN 0 */
  24:Src/tim.c     **** 
  25:Src/tim.c     **** /* USER CODE END 0 */
  26:Src/tim.c     **** 
  27:Src/tim.c     **** TIM_HandleTypeDef htim1;
  28:Src/tim.c     **** TIM_HandleTypeDef htim2;
  29:Src/tim.c     **** TIM_HandleTypeDef htim4;
  30:Src/tim.c     **** TIM_HandleTypeDef htim5;
  31:Src/tim.c     **** TIM_HandleTypeDef htim6;
ARM GAS  C:\Users\simon\AppData\Local\Temp\cc9kiOsk.s 			page 2


  32:Src/tim.c     **** TIM_HandleTypeDef htim7;
  33:Src/tim.c     **** TIM_HandleTypeDef htim8;
  34:Src/tim.c     **** TIM_HandleTypeDef htim12;
  35:Src/tim.c     **** TIM_HandleTypeDef htim13;
  36:Src/tim.c     **** TIM_HandleTypeDef htim14;
  37:Src/tim.c     **** TIM_HandleTypeDef htim15;
  38:Src/tim.c     **** TIM_HandleTypeDef htim16;
  39:Src/tim.c     **** TIM_HandleTypeDef htim17;
  40:Src/tim.c     **** 
  41:Src/tim.c     **** /* TIM1 init function */
  42:Src/tim.c     **** void MX_TIM1_Init(void)
  43:Src/tim.c     **** {
  28              		.loc 1 43 1 view -0
  29              		.cfi_startproc
  30              		@ args = 0, pretend = 0, frame = 32
  31              		@ frame_needed = 0, uses_anonymous_args = 0
  32 0000 00B5     		push	{lr}
  33              	.LCFI0:
  34              		.cfi_def_cfa_offset 4
  35              		.cfi_offset 14, -4
  36 0002 89B0     		sub	sp, sp, #36
  37              	.LCFI1:
  38              		.cfi_def_cfa_offset 40
  44:Src/tim.c     **** 
  45:Src/tim.c     ****   /* USER CODE BEGIN TIM1_Init 0 */
  46:Src/tim.c     **** 
  47:Src/tim.c     ****   /* USER CODE END TIM1_Init 0 */
  48:Src/tim.c     **** 
  49:Src/tim.c     ****   TIM_ClockConfigTypeDef sClockSourceConfig = {0};
  39              		.loc 1 49 3 view .LVU1
  40              		.loc 1 49 26 is_stmt 0 view .LVU2
  41 0004 0023     		movs	r3, #0
  42 0006 0493     		str	r3, [sp, #16]
  43 0008 0593     		str	r3, [sp, #20]
  44 000a 0693     		str	r3, [sp, #24]
  45 000c 0793     		str	r3, [sp, #28]
  50:Src/tim.c     ****   TIM_MasterConfigTypeDef sMasterConfig = {0};
  46              		.loc 1 50 3 is_stmt 1 view .LVU3
  47              		.loc 1 50 27 is_stmt 0 view .LVU4
  48 000e 0193     		str	r3, [sp, #4]
  49 0010 0293     		str	r3, [sp, #8]
  50 0012 0393     		str	r3, [sp, #12]
  51:Src/tim.c     **** 
  52:Src/tim.c     ****   /* USER CODE BEGIN TIM1_Init 1 */
  53:Src/tim.c     **** 
  54:Src/tim.c     ****   /* USER CODE END TIM1_Init 1 */
  55:Src/tim.c     ****   htim1.Instance = TIM1;
  51              		.loc 1 55 3 is_stmt 1 view .LVU5
  52              		.loc 1 55 18 is_stmt 0 view .LVU6
  53 0014 1648     		ldr	r0, .L9
  54 0016 174A     		ldr	r2, .L9+4
  55 0018 0260     		str	r2, [r0]
  56:Src/tim.c     ****   htim1.Init.Prescaler = 600-1;
  56              		.loc 1 56 3 is_stmt 1 view .LVU7
  57              		.loc 1 56 24 is_stmt 0 view .LVU8
  58 001a 40F25722 		movw	r2, #599
  59 001e 4260     		str	r2, [r0, #4]
ARM GAS  C:\Users\simon\AppData\Local\Temp\cc9kiOsk.s 			page 3


  57:Src/tim.c     ****   htim1.Init.CounterMode = TIM_COUNTERMODE_UP;
  60              		.loc 1 57 3 is_stmt 1 view .LVU9
  61              		.loc 1 57 26 is_stmt 0 view .LVU10
  62 0020 8360     		str	r3, [r0, #8]
  58:Src/tim.c     ****   htim1.Init.Period = 10-1;
  63              		.loc 1 58 3 is_stmt 1 view .LVU11
  64              		.loc 1 58 21 is_stmt 0 view .LVU12
  65 0022 0922     		movs	r2, #9
  66 0024 C260     		str	r2, [r0, #12]
  59:Src/tim.c     ****   htim1.Init.ClockDivision = TIM_CLOCKDIVISION_DIV1;
  67              		.loc 1 59 3 is_stmt 1 view .LVU13
  68              		.loc 1 59 28 is_stmt 0 view .LVU14
  69 0026 0361     		str	r3, [r0, #16]
  60:Src/tim.c     ****   htim1.Init.RepetitionCounter = 0;
  70              		.loc 1 60 3 is_stmt 1 view .LVU15
  71              		.loc 1 60 32 is_stmt 0 view .LVU16
  72 0028 4361     		str	r3, [r0, #20]
  61:Src/tim.c     ****   htim1.Init.AutoReloadPreload = TIM_AUTORELOAD_PRELOAD_DISABLE;
  73              		.loc 1 61 3 is_stmt 1 view .LVU17
  74              		.loc 1 61 32 is_stmt 0 view .LVU18
  75 002a 8361     		str	r3, [r0, #24]
  62:Src/tim.c     ****   if (HAL_TIM_Base_Init(&htim1) != HAL_OK)
  76              		.loc 1 62 3 is_stmt 1 view .LVU19
  77              		.loc 1 62 7 is_stmt 0 view .LVU20
  78 002c FFF7FEFF 		bl	HAL_TIM_Base_Init
  79              	.LVL0:
  80              		.loc 1 62 6 view .LVU21
  81 0030 A0B9     		cbnz	r0, .L6
  82              	.L2:
  63:Src/tim.c     ****   {
  64:Src/tim.c     ****     Error_Handler();
  65:Src/tim.c     ****   }
  66:Src/tim.c     ****   sClockSourceConfig.ClockSource = TIM_CLOCKSOURCE_INTERNAL;
  83              		.loc 1 66 3 is_stmt 1 view .LVU22
  84              		.loc 1 66 34 is_stmt 0 view .LVU23
  85 0032 4FF48053 		mov	r3, #4096
  86 0036 0493     		str	r3, [sp, #16]
  67:Src/tim.c     ****   if (HAL_TIM_ConfigClockSource(&htim1, &sClockSourceConfig) != HAL_OK)
  87              		.loc 1 67 3 is_stmt 1 view .LVU24
  88              		.loc 1 67 7 is_stmt 0 view .LVU25
  89 0038 04A9     		add	r1, sp, #16
  90 003a 0D48     		ldr	r0, .L9
  91 003c FFF7FEFF 		bl	HAL_TIM_ConfigClockSource
  92              	.LVL1:
  93              		.loc 1 67 6 view .LVU26
  94 0040 78B9     		cbnz	r0, .L7
  95              	.L3:
  68:Src/tim.c     ****   {
  69:Src/tim.c     ****     Error_Handler();
  70:Src/tim.c     ****   }
  71:Src/tim.c     ****   sMasterConfig.MasterOutputTrigger = TIM_TRGO_UPDATE;
  96              		.loc 1 71 3 is_stmt 1 view .LVU27
  97              		.loc 1 71 37 is_stmt 0 view .LVU28
  98 0042 2023     		movs	r3, #32
  99 0044 0193     		str	r3, [sp, #4]
  72:Src/tim.c     ****   sMasterConfig.MasterOutputTrigger2 = TIM_TRGO2_RESET;
 100              		.loc 1 72 3 is_stmt 1 view .LVU29
ARM GAS  C:\Users\simon\AppData\Local\Temp\cc9kiOsk.s 			page 4


 101              		.loc 1 72 38 is_stmt 0 view .LVU30
 102 0046 0023     		movs	r3, #0
 103 0048 0293     		str	r3, [sp, #8]
  73:Src/tim.c     ****   sMasterConfig.MasterSlaveMode = TIM_MASTERSLAVEMODE_DISABLE;
 104              		.loc 1 73 3 is_stmt 1 view .LVU31
 105              		.loc 1 73 33 is_stmt 0 view .LVU32
 106 004a 0393     		str	r3, [sp, #12]
  74:Src/tim.c     ****   if (HAL_TIMEx_MasterConfigSynchronization(&htim1, &sMasterConfig) != HAL_OK)
 107              		.loc 1 74 3 is_stmt 1 view .LVU33
 108              		.loc 1 74 7 is_stmt 0 view .LVU34
 109 004c 01A9     		add	r1, sp, #4
 110 004e 0848     		ldr	r0, .L9
 111 0050 FFF7FEFF 		bl	HAL_TIMEx_MasterConfigSynchronization
 112              	.LVL2:
 113              		.loc 1 74 6 view .LVU35
 114 0054 40B9     		cbnz	r0, .L8
 115              	.L1:
  75:Src/tim.c     ****   {
  76:Src/tim.c     ****     Error_Handler();
  77:Src/tim.c     ****   }
  78:Src/tim.c     ****   /* USER CODE BEGIN TIM1_Init 2 */
  79:Src/tim.c     **** 
  80:Src/tim.c     ****   /* USER CODE END TIM1_Init 2 */
  81:Src/tim.c     **** 
  82:Src/tim.c     **** }
 116              		.loc 1 82 1 view .LVU36
 117 0056 09B0     		add	sp, sp, #36
 118              	.LCFI2:
 119              		.cfi_remember_state
 120              		.cfi_def_cfa_offset 4
 121              		@ sp needed
 122 0058 5DF804FB 		ldr	pc, [sp], #4
 123              	.L6:
 124              	.LCFI3:
 125              		.cfi_restore_state
  64:Src/tim.c     ****   }
 126              		.loc 1 64 5 is_stmt 1 view .LVU37
 127 005c FFF7FEFF 		bl	Error_Handler
 128              	.LVL3:
 129 0060 E7E7     		b	.L2
 130              	.L7:
  69:Src/tim.c     ****   }
 131              		.loc 1 69 5 view .LVU38
 132 0062 FFF7FEFF 		bl	Error_Handler
 133              	.LVL4:
 134 0066 ECE7     		b	.L3
 135              	.L8:
  76:Src/tim.c     ****   }
 136              		.loc 1 76 5 view .LVU39
 137 0068 FFF7FEFF 		bl	Error_Handler
 138              	.LVL5:
 139              		.loc 1 82 1 is_stmt 0 view .LVU40
 140 006c F3E7     		b	.L1
 141              	.L10:
 142 006e 00BF     		.align	2
 143              	.L9:
 144 0070 00000000 		.word	.LANCHOR0
ARM GAS  C:\Users\simon\AppData\Local\Temp\cc9kiOsk.s 			page 5


 145 0074 00000140 		.word	1073807360
 146              		.cfi_endproc
 147              	.LFE331:
 149              		.section	.text.MX_TIM4_Init,"ax",%progbits
 150              		.align	1
 151              		.global	MX_TIM4_Init
 152              		.syntax unified
 153              		.thumb
 154              		.thumb_func
 156              	MX_TIM4_Init:
 157              	.LFB333:
  83:Src/tim.c     **** /* TIM2 init function */
  84:Src/tim.c     **** void MX_TIM2_Init(void)
  85:Src/tim.c     **** {
  86:Src/tim.c     **** 
  87:Src/tim.c     ****   /* USER CODE BEGIN TIM2_Init 0 */
  88:Src/tim.c     **** 
  89:Src/tim.c     ****   /* USER CODE END TIM2_Init 0 */
  90:Src/tim.c     **** 
  91:Src/tim.c     ****   TIM_MasterConfigTypeDef sMasterConfig = {0};
  92:Src/tim.c     ****   TIM_IC_InitTypeDef sConfigIC = {0};
  93:Src/tim.c     ****   TIM_OC_InitTypeDef sConfigOC = {0};
  94:Src/tim.c     **** 
  95:Src/tim.c     ****   /* USER CODE BEGIN TIM2_Init 1 */
  96:Src/tim.c     **** 
  97:Src/tim.c     ****   /* USER CODE END TIM2_Init 1 */
  98:Src/tim.c     ****   htim2.Instance = TIM2;
  99:Src/tim.c     ****   htim2.Init.Prescaler = 0;
 100:Src/tim.c     ****   htim2.Init.CounterMode = TIM_COUNTERMODE_UP;
 101:Src/tim.c     ****   htim2.Init.Period = 4294967295;
 102:Src/tim.c     ****   htim2.Init.ClockDivision = TIM_CLOCKDIVISION_DIV1;
 103:Src/tim.c     ****   htim2.Init.AutoReloadPreload = TIM_AUTORELOAD_PRELOAD_DISABLE;
 104:Src/tim.c     ****   if (HAL_TIM_IC_Init(&htim2) != HAL_OK)
 105:Src/tim.c     ****   {
 106:Src/tim.c     ****     Error_Handler();
 107:Src/tim.c     ****   }
 108:Src/tim.c     ****   if (HAL_TIM_PWM_Init(&htim2) != HAL_OK)
 109:Src/tim.c     ****   {
 110:Src/tim.c     ****     Error_Handler();
 111:Src/tim.c     ****   }
 112:Src/tim.c     ****   sMasterConfig.MasterOutputTrigger = TIM_TRGO_RESET;
 113:Src/tim.c     ****   sMasterConfig.MasterSlaveMode = TIM_MASTERSLAVEMODE_DISABLE;
 114:Src/tim.c     ****   if (HAL_TIMEx_MasterConfigSynchronization(&htim2, &sMasterConfig) != HAL_OK)
 115:Src/tim.c     ****   {
 116:Src/tim.c     ****     Error_Handler();
 117:Src/tim.c     ****   }
 118:Src/tim.c     ****   sConfigIC.ICPolarity = TIM_INPUTCHANNELPOLARITY_RISING;
 119:Src/tim.c     ****   sConfigIC.ICSelection = TIM_ICSELECTION_DIRECTTI;
 120:Src/tim.c     ****   sConfigIC.ICPrescaler = TIM_ICPSC_DIV1;
 121:Src/tim.c     ****   sConfigIC.ICFilter = 0;
 122:Src/tim.c     ****   if (HAL_TIM_IC_ConfigChannel(&htim2, &sConfigIC, TIM_CHANNEL_1) != HAL_OK)
 123:Src/tim.c     ****   {
 124:Src/tim.c     ****     Error_Handler();
 125:Src/tim.c     ****   }
 126:Src/tim.c     ****   if (HAL_TIM_IC_ConfigChannel(&htim2, &sConfigIC, TIM_CHANNEL_3) != HAL_OK)
 127:Src/tim.c     ****   {
 128:Src/tim.c     ****     Error_Handler();
ARM GAS  C:\Users\simon\AppData\Local\Temp\cc9kiOsk.s 			page 6


 129:Src/tim.c     ****   }
 130:Src/tim.c     ****   sConfigOC.OCMode = TIM_OCMODE_PWM1;
 131:Src/tim.c     ****   sConfigOC.Pulse = 0;
 132:Src/tim.c     ****   sConfigOC.OCPolarity = TIM_OCPOLARITY_HIGH;
 133:Src/tim.c     ****   sConfigOC.OCFastMode = TIM_OCFAST_DISABLE;
 134:Src/tim.c     ****   if (HAL_TIM_PWM_ConfigChannel(&htim2, &sConfigOC, TIM_CHANNEL_4) != HAL_OK)
 135:Src/tim.c     ****   {
 136:Src/tim.c     ****     Error_Handler();
 137:Src/tim.c     ****   }
 138:Src/tim.c     ****   /* USER CODE BEGIN TIM2_Init 2 */
 139:Src/tim.c     **** 
 140:Src/tim.c     ****   /* USER CODE END TIM2_Init 2 */
 141:Src/tim.c     ****   HAL_TIM_MspPostInit(&htim2);
 142:Src/tim.c     **** 
 143:Src/tim.c     **** }
 144:Src/tim.c     **** /* TIM4 init function */
 145:Src/tim.c     **** void MX_TIM4_Init(void)
 146:Src/tim.c     **** {
 158              		.loc 1 146 1 is_stmt 1 view -0
 159              		.cfi_startproc
 160              		@ args = 0, pretend = 0, frame = 64
 161              		@ frame_needed = 0, uses_anonymous_args = 0
 162 0000 00B5     		push	{lr}
 163              	.LCFI4:
 164              		.cfi_def_cfa_offset 4
 165              		.cfi_offset 14, -4
 166 0002 91B0     		sub	sp, sp, #68
 167              	.LCFI5:
 168              		.cfi_def_cfa_offset 72
 147:Src/tim.c     **** 
 148:Src/tim.c     ****   /* USER CODE BEGIN TIM4_Init 0 */
 149:Src/tim.c     **** 
 150:Src/tim.c     ****   /* USER CODE END TIM4_Init 0 */
 151:Src/tim.c     **** 
 152:Src/tim.c     ****   TIM_Encoder_InitTypeDef sConfig = {0};
 169              		.loc 1 152 3 view .LVU42
 170              		.loc 1 152 27 is_stmt 0 view .LVU43
 171 0004 2422     		movs	r2, #36
 172 0006 0021     		movs	r1, #0
 173 0008 07A8     		add	r0, sp, #28
 174 000a FFF7FEFF 		bl	memset
 175              	.LVL6:
 153:Src/tim.c     ****   TIM_MasterConfigTypeDef sMasterConfig = {0};
 176              		.loc 1 153 3 is_stmt 1 view .LVU44
 177              		.loc 1 153 27 is_stmt 0 view .LVU45
 178 000e 0023     		movs	r3, #0
 179 0010 0493     		str	r3, [sp, #16]
 180 0012 0593     		str	r3, [sp, #20]
 181 0014 0693     		str	r3, [sp, #24]
 154:Src/tim.c     ****   TIM_IC_InitTypeDef sConfigIC = {0};
 182              		.loc 1 154 3 is_stmt 1 view .LVU46
 183              		.loc 1 154 22 is_stmt 0 view .LVU47
 184 0016 0093     		str	r3, [sp]
 185 0018 0193     		str	r3, [sp, #4]
 186 001a 0293     		str	r3, [sp, #8]
 187 001c 0393     		str	r3, [sp, #12]
 155:Src/tim.c     **** 
ARM GAS  C:\Users\simon\AppData\Local\Temp\cc9kiOsk.s 			page 7


 156:Src/tim.c     ****   /* USER CODE BEGIN TIM4_Init 1 */
 157:Src/tim.c     **** 
 158:Src/tim.c     ****   /* USER CODE END TIM4_Init 1 */
 159:Src/tim.c     ****   htim4.Instance = TIM4;
 188              		.loc 1 159 3 is_stmt 1 view .LVU48
 189              		.loc 1 159 18 is_stmt 0 view .LVU49
 190 001e 2048     		ldr	r0, .L21
 191 0020 204A     		ldr	r2, .L21+4
 192 0022 0260     		str	r2, [r0]
 160:Src/tim.c     ****   htim4.Init.Prescaler = 0;
 193              		.loc 1 160 3 is_stmt 1 view .LVU50
 194              		.loc 1 160 24 is_stmt 0 view .LVU51
 195 0024 4360     		str	r3, [r0, #4]
 161:Src/tim.c     ****   htim4.Init.CounterMode = TIM_COUNTERMODE_UP;
 196              		.loc 1 161 3 is_stmt 1 view .LVU52
 197              		.loc 1 161 26 is_stmt 0 view .LVU53
 198 0026 8360     		str	r3, [r0, #8]
 162:Src/tim.c     ****   htim4.Init.Period = 65535;
 199              		.loc 1 162 3 is_stmt 1 view .LVU54
 200              		.loc 1 162 21 is_stmt 0 view .LVU55
 201 0028 4FF6FF72 		movw	r2, #65535
 202 002c C260     		str	r2, [r0, #12]
 163:Src/tim.c     ****   htim4.Init.ClockDivision = TIM_CLOCKDIVISION_DIV1;
 203              		.loc 1 163 3 is_stmt 1 view .LVU56
 204              		.loc 1 163 28 is_stmt 0 view .LVU57
 205 002e 0361     		str	r3, [r0, #16]
 164:Src/tim.c     ****   htim4.Init.AutoReloadPreload = TIM_AUTORELOAD_PRELOAD_DISABLE;
 206              		.loc 1 164 3 is_stmt 1 view .LVU58
 207              		.loc 1 164 32 is_stmt 0 view .LVU59
 208 0030 8361     		str	r3, [r0, #24]
 165:Src/tim.c     ****   if (HAL_TIM_IC_Init(&htim4) != HAL_OK)
 209              		.loc 1 165 3 is_stmt 1 view .LVU60
 210              		.loc 1 165 7 is_stmt 0 view .LVU61
 211 0032 FFF7FEFF 		bl	HAL_TIM_IC_Init
 212              	.LVL7:
 213              		.loc 1 165 6 view .LVU62
 214 0036 30BB     		cbnz	r0, .L17
 215              	.L12:
 166:Src/tim.c     ****   {
 167:Src/tim.c     ****     Error_Handler();
 168:Src/tim.c     ****   }
 169:Src/tim.c     ****   sConfig.EncoderMode = TIM_ENCODERMODE_TI1;
 216              		.loc 1 169 3 is_stmt 1 view .LVU63
 217              		.loc 1 169 23 is_stmt 0 view .LVU64
 218 0038 0122     		movs	r2, #1
 219 003a 0792     		str	r2, [sp, #28]
 170:Src/tim.c     ****   sConfig.IC1Polarity = TIM_ICPOLARITY_RISING;
 220              		.loc 1 170 3 is_stmt 1 view .LVU65
 221              		.loc 1 170 23 is_stmt 0 view .LVU66
 222 003c 0023     		movs	r3, #0
 223 003e 0893     		str	r3, [sp, #32]
 171:Src/tim.c     ****   sConfig.IC1Selection = TIM_ICSELECTION_DIRECTTI;
 224              		.loc 1 171 3 is_stmt 1 view .LVU67
 225              		.loc 1 171 24 is_stmt 0 view .LVU68
 226 0040 0992     		str	r2, [sp, #36]
 172:Src/tim.c     ****   sConfig.IC1Prescaler = TIM_ICPSC_DIV1;
 227              		.loc 1 172 3 is_stmt 1 view .LVU69
ARM GAS  C:\Users\simon\AppData\Local\Temp\cc9kiOsk.s 			page 8


 228              		.loc 1 172 24 is_stmt 0 view .LVU70
 229 0042 0A93     		str	r3, [sp, #40]
 173:Src/tim.c     ****   sConfig.IC1Filter = 0;
 230              		.loc 1 173 3 is_stmt 1 view .LVU71
 231              		.loc 1 173 21 is_stmt 0 view .LVU72
 232 0044 0B93     		str	r3, [sp, #44]
 174:Src/tim.c     ****   sConfig.IC2Polarity = TIM_ICPOLARITY_RISING;
 233              		.loc 1 174 3 is_stmt 1 view .LVU73
 234              		.loc 1 174 23 is_stmt 0 view .LVU74
 235 0046 0C93     		str	r3, [sp, #48]
 175:Src/tim.c     ****   sConfig.IC2Selection = TIM_ICSELECTION_DIRECTTI;
 236              		.loc 1 175 3 is_stmt 1 view .LVU75
 237              		.loc 1 175 24 is_stmt 0 view .LVU76
 238 0048 0D92     		str	r2, [sp, #52]
 176:Src/tim.c     ****   sConfig.IC2Prescaler = TIM_ICPSC_DIV1;
 239              		.loc 1 176 3 is_stmt 1 view .LVU77
 240              		.loc 1 176 24 is_stmt 0 view .LVU78
 241 004a 0E93     		str	r3, [sp, #56]
 177:Src/tim.c     ****   sConfig.IC2Filter = 0;
 242              		.loc 1 177 3 is_stmt 1 view .LVU79
 243              		.loc 1 177 21 is_stmt 0 view .LVU80
 244 004c 0F93     		str	r3, [sp, #60]
 178:Src/tim.c     ****   if (HAL_TIM_Encoder_Init(&htim4, &sConfig) != HAL_OK)
 245              		.loc 1 178 3 is_stmt 1 view .LVU81
 246              		.loc 1 178 7 is_stmt 0 view .LVU82
 247 004e 07A9     		add	r1, sp, #28
 248 0050 1348     		ldr	r0, .L21
 249 0052 FFF7FEFF 		bl	HAL_TIM_Encoder_Init
 250              	.LVL8:
 251              		.loc 1 178 6 view .LVU83
 252 0056 C8B9     		cbnz	r0, .L18
 253              	.L13:
 179:Src/tim.c     ****   {
 180:Src/tim.c     ****     Error_Handler();
 181:Src/tim.c     ****   }
 182:Src/tim.c     ****   sMasterConfig.MasterOutputTrigger = TIM_TRGO_RESET;
 254              		.loc 1 182 3 is_stmt 1 view .LVU84
 255              		.loc 1 182 37 is_stmt 0 view .LVU85
 256 0058 0023     		movs	r3, #0
 257 005a 0493     		str	r3, [sp, #16]
 183:Src/tim.c     ****   sMasterConfig.MasterSlaveMode = TIM_MASTERSLAVEMODE_DISABLE;
 258              		.loc 1 183 3 is_stmt 1 view .LVU86
 259              		.loc 1 183 33 is_stmt 0 view .LVU87
 260 005c 0693     		str	r3, [sp, #24]
 184:Src/tim.c     ****   if (HAL_TIMEx_MasterConfigSynchronization(&htim4, &sMasterConfig) != HAL_OK)
 261              		.loc 1 184 3 is_stmt 1 view .LVU88
 262              		.loc 1 184 7 is_stmt 0 view .LVU89
 263 005e 04A9     		add	r1, sp, #16
 264 0060 0F48     		ldr	r0, .L21
 265 0062 FFF7FEFF 		bl	HAL_TIMEx_MasterConfigSynchronization
 266              	.LVL9:
 267              		.loc 1 184 6 view .LVU90
 268 0066 A0B9     		cbnz	r0, .L19
 269              	.L14:
 185:Src/tim.c     ****   {
 186:Src/tim.c     ****     Error_Handler();
 187:Src/tim.c     ****   }
ARM GAS  C:\Users\simon\AppData\Local\Temp\cc9kiOsk.s 			page 9


 188:Src/tim.c     ****   sConfigIC.ICPolarity = TIM_INPUTCHANNELPOLARITY_RISING;
 270              		.loc 1 188 3 is_stmt 1 view .LVU91
 271              		.loc 1 188 24 is_stmt 0 view .LVU92
 272 0068 0023     		movs	r3, #0
 273 006a 0093     		str	r3, [sp]
 189:Src/tim.c     ****   sConfigIC.ICSelection = TIM_ICSELECTION_DIRECTTI;
 274              		.loc 1 189 3 is_stmt 1 view .LVU93
 275              		.loc 1 189 25 is_stmt 0 view .LVU94
 276 006c 0122     		movs	r2, #1
 277 006e 0192     		str	r2, [sp, #4]
 190:Src/tim.c     ****   sConfigIC.ICPrescaler = TIM_ICPSC_DIV1;
 278              		.loc 1 190 3 is_stmt 1 view .LVU95
 279              		.loc 1 190 25 is_stmt 0 view .LVU96
 280 0070 0293     		str	r3, [sp, #8]
 191:Src/tim.c     ****   sConfigIC.ICFilter = 0;
 281              		.loc 1 191 3 is_stmt 1 view .LVU97
 282              		.loc 1 191 22 is_stmt 0 view .LVU98
 283 0072 0393     		str	r3, [sp, #12]
 192:Src/tim.c     ****   if (HAL_TIM_IC_ConfigChannel(&htim4, &sConfigIC, TIM_CHANNEL_3) != HAL_OK)
 284              		.loc 1 192 3 is_stmt 1 view .LVU99
 285              		.loc 1 192 7 is_stmt 0 view .LVU100
 286 0074 0822     		movs	r2, #8
 287 0076 6946     		mov	r1, sp
 288 0078 0948     		ldr	r0, .L21
 289 007a FFF7FEFF 		bl	HAL_TIM_IC_ConfigChannel
 290              	.LVL10:
 291              		.loc 1 192 6 view .LVU101
 292 007e 58B9     		cbnz	r0, .L20
 293              	.L11:
 193:Src/tim.c     ****   {
 194:Src/tim.c     ****     Error_Handler();
 195:Src/tim.c     ****   }
 196:Src/tim.c     ****   /* USER CODE BEGIN TIM4_Init 2 */
 197:Src/tim.c     **** 
 198:Src/tim.c     ****   /* USER CODE END TIM4_Init 2 */
 199:Src/tim.c     **** 
 200:Src/tim.c     **** }
 294              		.loc 1 200 1 view .LVU102
 295 0080 11B0     		add	sp, sp, #68
 296              	.LCFI6:
 297              		.cfi_remember_state
 298              		.cfi_def_cfa_offset 4
 299              		@ sp needed
 300 0082 5DF804FB 		ldr	pc, [sp], #4
 301              	.L17:
 302              	.LCFI7:
 303              		.cfi_restore_state
 167:Src/tim.c     ****   }
 304              		.loc 1 167 5 is_stmt 1 view .LVU103
 305 0086 FFF7FEFF 		bl	Error_Handler
 306              	.LVL11:
 307 008a D5E7     		b	.L12
 308              	.L18:
 180:Src/tim.c     ****   }
 309              		.loc 1 180 5 view .LVU104
 310 008c FFF7FEFF 		bl	Error_Handler
 311              	.LVL12:
ARM GAS  C:\Users\simon\AppData\Local\Temp\cc9kiOsk.s 			page 10


 312 0090 E2E7     		b	.L13
 313              	.L19:
 186:Src/tim.c     ****   }
 314              		.loc 1 186 5 view .LVU105
 315 0092 FFF7FEFF 		bl	Error_Handler
 316              	.LVL13:
 317 0096 E7E7     		b	.L14
 318              	.L20:
 194:Src/tim.c     ****   }
 319              		.loc 1 194 5 view .LVU106
 320 0098 FFF7FEFF 		bl	Error_Handler
 321              	.LVL14:
 322              		.loc 1 200 1 is_stmt 0 view .LVU107
 323 009c F0E7     		b	.L11
 324              	.L22:
 325 009e 00BF     		.align	2
 326              	.L21:
 327 00a0 00000000 		.word	.LANCHOR1
 328 00a4 00080040 		.word	1073743872
 329              		.cfi_endproc
 330              	.LFE333:
 332              		.section	.text.MX_TIM5_Init,"ax",%progbits
 333              		.align	1
 334              		.global	MX_TIM5_Init
 335              		.syntax unified
 336              		.thumb
 337              		.thumb_func
 339              	MX_TIM5_Init:
 340              	.LFB334:
 201:Src/tim.c     **** /* TIM5 init function */
 202:Src/tim.c     **** void MX_TIM5_Init(void)
 203:Src/tim.c     **** {
 341              		.loc 1 203 1 is_stmt 1 view -0
 342              		.cfi_startproc
 343              		@ args = 0, pretend = 0, frame = 48
 344              		@ frame_needed = 0, uses_anonymous_args = 0
 345 0000 00B5     		push	{lr}
 346              	.LCFI8:
 347              		.cfi_def_cfa_offset 4
 348              		.cfi_offset 14, -4
 349 0002 8DB0     		sub	sp, sp, #52
 350              	.LCFI9:
 351              		.cfi_def_cfa_offset 56
 204:Src/tim.c     **** 
 205:Src/tim.c     ****   /* USER CODE BEGIN TIM5_Init 0 */
 206:Src/tim.c     **** 
 207:Src/tim.c     ****   /* USER CODE END TIM5_Init 0 */
 208:Src/tim.c     **** 
 209:Src/tim.c     ****   TIM_Encoder_InitTypeDef sConfig = {0};
 352              		.loc 1 209 3 view .LVU109
 353              		.loc 1 209 27 is_stmt 0 view .LVU110
 354 0004 2422     		movs	r2, #36
 355 0006 0021     		movs	r1, #0
 356 0008 03A8     		add	r0, sp, #12
 357 000a FFF7FEFF 		bl	memset
 358              	.LVL15:
 210:Src/tim.c     ****   TIM_MasterConfigTypeDef sMasterConfig = {0};
ARM GAS  C:\Users\simon\AppData\Local\Temp\cc9kiOsk.s 			page 11


 359              		.loc 1 210 3 is_stmt 1 view .LVU111
 360              		.loc 1 210 27 is_stmt 0 view .LVU112
 361 000e 0023     		movs	r3, #0
 362 0010 0093     		str	r3, [sp]
 363 0012 0193     		str	r3, [sp, #4]
 364 0014 0293     		str	r3, [sp, #8]
 211:Src/tim.c     **** 
 212:Src/tim.c     ****   /* USER CODE BEGIN TIM5_Init 1 */
 213:Src/tim.c     **** 
 214:Src/tim.c     ****   /* USER CODE END TIM5_Init 1 */
 215:Src/tim.c     ****   htim5.Instance = TIM5;
 365              		.loc 1 215 3 is_stmt 1 view .LVU113
 366              		.loc 1 215 18 is_stmt 0 view .LVU114
 367 0016 1148     		ldr	r0, .L29
 368 0018 114A     		ldr	r2, .L29+4
 369 001a 0260     		str	r2, [r0]
 216:Src/tim.c     ****   htim5.Init.Prescaler = 0;
 370              		.loc 1 216 3 is_stmt 1 view .LVU115
 371              		.loc 1 216 24 is_stmt 0 view .LVU116
 372 001c 4360     		str	r3, [r0, #4]
 217:Src/tim.c     ****   htim5.Init.CounterMode = TIM_COUNTERMODE_UP;
 373              		.loc 1 217 3 is_stmt 1 view .LVU117
 374              		.loc 1 217 26 is_stmt 0 view .LVU118
 375 001e 8360     		str	r3, [r0, #8]
 218:Src/tim.c     ****   htim5.Init.Period = 4294967295;
 376              		.loc 1 218 3 is_stmt 1 view .LVU119
 377              		.loc 1 218 21 is_stmt 0 view .LVU120
 378 0020 4FF0FF32 		mov	r2, #-1
 379 0024 C260     		str	r2, [r0, #12]
 219:Src/tim.c     ****   htim5.Init.ClockDivision = TIM_CLOCKDIVISION_DIV1;
 380              		.loc 1 219 3 is_stmt 1 view .LVU121
 381              		.loc 1 219 28 is_stmt 0 view .LVU122
 382 0026 0361     		str	r3, [r0, #16]
 220:Src/tim.c     ****   htim5.Init.AutoReloadPreload = TIM_AUTORELOAD_PRELOAD_DISABLE;
 383              		.loc 1 220 3 is_stmt 1 view .LVU123
 384              		.loc 1 220 32 is_stmt 0 view .LVU124
 385 0028 8361     		str	r3, [r0, #24]
 221:Src/tim.c     ****   sConfig.EncoderMode = TIM_ENCODERMODE_TI1;
 386              		.loc 1 221 3 is_stmt 1 view .LVU125
 387              		.loc 1 221 23 is_stmt 0 view .LVU126
 388 002a 0123     		movs	r3, #1
 389 002c 0393     		str	r3, [sp, #12]
 222:Src/tim.c     ****   sConfig.IC1Polarity = TIM_ICPOLARITY_RISING;
 390              		.loc 1 222 3 is_stmt 1 view .LVU127
 223:Src/tim.c     ****   sConfig.IC1Selection = TIM_ICSELECTION_DIRECTTI;
 391              		.loc 1 223 3 view .LVU128
 392              		.loc 1 223 24 is_stmt 0 view .LVU129
 393 002e 0593     		str	r3, [sp, #20]
 224:Src/tim.c     ****   sConfig.IC1Prescaler = TIM_ICPSC_DIV1;
 394              		.loc 1 224 3 is_stmt 1 view .LVU130
 225:Src/tim.c     ****   sConfig.IC1Filter = 0;
 395              		.loc 1 225 3 view .LVU131
 226:Src/tim.c     ****   sConfig.IC2Polarity = TIM_ICPOLARITY_RISING;
 396              		.loc 1 226 3 view .LVU132
 227:Src/tim.c     ****   sConfig.IC2Selection = TIM_ICSELECTION_DIRECTTI;
 397              		.loc 1 227 3 view .LVU133
 398              		.loc 1 227 24 is_stmt 0 view .LVU134
ARM GAS  C:\Users\simon\AppData\Local\Temp\cc9kiOsk.s 			page 12


 399 0030 0993     		str	r3, [sp, #36]
 228:Src/tim.c     ****   sConfig.IC2Prescaler = TIM_ICPSC_DIV1;
 400              		.loc 1 228 3 is_stmt 1 view .LVU135
 229:Src/tim.c     ****   sConfig.IC2Filter = 0;
 401              		.loc 1 229 3 view .LVU136
 230:Src/tim.c     ****   if (HAL_TIM_Encoder_Init(&htim5, &sConfig) != HAL_OK)
 402              		.loc 1 230 3 view .LVU137
 403              		.loc 1 230 7 is_stmt 0 view .LVU138
 404 0032 03A9     		add	r1, sp, #12
 405 0034 FFF7FEFF 		bl	HAL_TIM_Encoder_Init
 406              	.LVL16:
 407              		.loc 1 230 6 view .LVU139
 408 0038 50B9     		cbnz	r0, .L27
 409              	.L24:
 231:Src/tim.c     ****   {
 232:Src/tim.c     ****     Error_Handler();
 233:Src/tim.c     ****   }
 234:Src/tim.c     ****   sMasterConfig.MasterOutputTrigger = TIM_TRGO_RESET;
 410              		.loc 1 234 3 is_stmt 1 view .LVU140
 411              		.loc 1 234 37 is_stmt 0 view .LVU141
 412 003a 0023     		movs	r3, #0
 413 003c 0093     		str	r3, [sp]
 235:Src/tim.c     ****   sMasterConfig.MasterSlaveMode = TIM_MASTERSLAVEMODE_DISABLE;
 414              		.loc 1 235 3 is_stmt 1 view .LVU142
 415              		.loc 1 235 33 is_stmt 0 view .LVU143
 416 003e 0293     		str	r3, [sp, #8]
 236:Src/tim.c     ****   if (HAL_TIMEx_MasterConfigSynchronization(&htim5, &sMasterConfig) != HAL_OK)
 417              		.loc 1 236 3 is_stmt 1 view .LVU144
 418              		.loc 1 236 7 is_stmt 0 view .LVU145
 419 0040 6946     		mov	r1, sp
 420 0042 0648     		ldr	r0, .L29
 421 0044 FFF7FEFF 		bl	HAL_TIMEx_MasterConfigSynchronization
 422              	.LVL17:
 423              		.loc 1 236 6 view .LVU146
 424 0048 28B9     		cbnz	r0, .L28
 425              	.L23:
 237:Src/tim.c     ****   {
 238:Src/tim.c     ****     Error_Handler();
 239:Src/tim.c     ****   }
 240:Src/tim.c     ****   /* USER CODE BEGIN TIM5_Init 2 */
 241:Src/tim.c     **** 
 242:Src/tim.c     ****   /* USER CODE END TIM5_Init 2 */
 243:Src/tim.c     **** 
 244:Src/tim.c     **** }
 426              		.loc 1 244 1 view .LVU147
 427 004a 0DB0     		add	sp, sp, #52
 428              	.LCFI10:
 429              		.cfi_remember_state
 430              		.cfi_def_cfa_offset 4
 431              		@ sp needed
 432 004c 5DF804FB 		ldr	pc, [sp], #4
 433              	.L27:
 434              	.LCFI11:
 435              		.cfi_restore_state
 232:Src/tim.c     ****   }
 436              		.loc 1 232 5 is_stmt 1 view .LVU148
 437 0050 FFF7FEFF 		bl	Error_Handler
ARM GAS  C:\Users\simon\AppData\Local\Temp\cc9kiOsk.s 			page 13


 438              	.LVL18:
 439 0054 F1E7     		b	.L24
 440              	.L28:
 238:Src/tim.c     ****   }
 441              		.loc 1 238 5 view .LVU149
 442 0056 FFF7FEFF 		bl	Error_Handler
 443              	.LVL19:
 444              		.loc 1 244 1 is_stmt 0 view .LVU150
 445 005a F6E7     		b	.L23
 446              	.L30:
 447              		.align	2
 448              	.L29:
 449 005c 00000000 		.word	.LANCHOR2
 450 0060 000C0040 		.word	1073744896
 451              		.cfi_endproc
 452              	.LFE334:
 454              		.section	.text.MX_TIM6_Init,"ax",%progbits
 455              		.align	1
 456              		.global	MX_TIM6_Init
 457              		.syntax unified
 458              		.thumb
 459              		.thumb_func
 461              	MX_TIM6_Init:
 462              	.LFB335:
 245:Src/tim.c     **** /* TIM6 init function */
 246:Src/tim.c     **** void MX_TIM6_Init(void)
 247:Src/tim.c     **** {
 463              		.loc 1 247 1 is_stmt 1 view -0
 464              		.cfi_startproc
 465              		@ args = 0, pretend = 0, frame = 16
 466              		@ frame_needed = 0, uses_anonymous_args = 0
 467 0000 00B5     		push	{lr}
 468              	.LCFI12:
 469              		.cfi_def_cfa_offset 4
 470              		.cfi_offset 14, -4
 471 0002 85B0     		sub	sp, sp, #20
 472              	.LCFI13:
 473              		.cfi_def_cfa_offset 24
 248:Src/tim.c     **** 
 249:Src/tim.c     ****   /* USER CODE BEGIN TIM6_Init 0 */
 250:Src/tim.c     **** 
 251:Src/tim.c     ****   /* USER CODE END TIM6_Init 0 */
 252:Src/tim.c     **** 
 253:Src/tim.c     ****   TIM_MasterConfigTypeDef sMasterConfig = {0};
 474              		.loc 1 253 3 view .LVU152
 475              		.loc 1 253 27 is_stmt 0 view .LVU153
 476 0004 0023     		movs	r3, #0
 477 0006 0193     		str	r3, [sp, #4]
 478 0008 0293     		str	r3, [sp, #8]
 479 000a 0393     		str	r3, [sp, #12]
 254:Src/tim.c     **** 
 255:Src/tim.c     ****   /* USER CODE BEGIN TIM6_Init 1 */
 256:Src/tim.c     **** 
 257:Src/tim.c     ****   /* USER CODE END TIM6_Init 1 */
 258:Src/tim.c     ****   htim6.Instance = TIM6;
 480              		.loc 1 258 3 is_stmt 1 view .LVU154
 481              		.loc 1 258 18 is_stmt 0 view .LVU155
ARM GAS  C:\Users\simon\AppData\Local\Temp\cc9kiOsk.s 			page 14


 482 000c 0E48     		ldr	r0, .L37
 483 000e 0F4A     		ldr	r2, .L37+4
 484 0010 0260     		str	r2, [r0]
 259:Src/tim.c     ****   htim6.Init.Prescaler = 0;
 485              		.loc 1 259 3 is_stmt 1 view .LVU156
 486              		.loc 1 259 24 is_stmt 0 view .LVU157
 487 0012 4360     		str	r3, [r0, #4]
 260:Src/tim.c     ****   htim6.Init.CounterMode = TIM_COUNTERMODE_UP;
 488              		.loc 1 260 3 is_stmt 1 view .LVU158
 489              		.loc 1 260 26 is_stmt 0 view .LVU159
 490 0014 8360     		str	r3, [r0, #8]
 261:Src/tim.c     ****   htim6.Init.Period = 65535;
 491              		.loc 1 261 3 is_stmt 1 view .LVU160
 492              		.loc 1 261 21 is_stmt 0 view .LVU161
 493 0016 4FF6FF72 		movw	r2, #65535
 494 001a C260     		str	r2, [r0, #12]
 262:Src/tim.c     ****   htim6.Init.AutoReloadPreload = TIM_AUTORELOAD_PRELOAD_DISABLE;
 495              		.loc 1 262 3 is_stmt 1 view .LVU162
 496              		.loc 1 262 32 is_stmt 0 view .LVU163
 497 001c 8361     		str	r3, [r0, #24]
 263:Src/tim.c     ****   if (HAL_TIM_Base_Init(&htim6) != HAL_OK)
 498              		.loc 1 263 3 is_stmt 1 view .LVU164
 499              		.loc 1 263 7 is_stmt 0 view .LVU165
 500 001e FFF7FEFF 		bl	HAL_TIM_Base_Init
 501              	.LVL20:
 502              		.loc 1 263 6 view .LVU166
 503 0022 50B9     		cbnz	r0, .L35
 504              	.L32:
 264:Src/tim.c     ****   {
 265:Src/tim.c     ****     Error_Handler();
 266:Src/tim.c     ****   }
 267:Src/tim.c     ****   sMasterConfig.MasterOutputTrigger = TIM_TRGO_RESET;
 505              		.loc 1 267 3 is_stmt 1 view .LVU167
 506              		.loc 1 267 37 is_stmt 0 view .LVU168
 507 0024 0023     		movs	r3, #0
 508 0026 0193     		str	r3, [sp, #4]
 268:Src/tim.c     ****   sMasterConfig.MasterSlaveMode = TIM_MASTERSLAVEMODE_DISABLE;
 509              		.loc 1 268 3 is_stmt 1 view .LVU169
 510              		.loc 1 268 33 is_stmt 0 view .LVU170
 511 0028 0393     		str	r3, [sp, #12]
 269:Src/tim.c     ****   if (HAL_TIMEx_MasterConfigSynchronization(&htim6, &sMasterConfig) != HAL_OK)
 512              		.loc 1 269 3 is_stmt 1 view .LVU171
 513              		.loc 1 269 7 is_stmt 0 view .LVU172
 514 002a 01A9     		add	r1, sp, #4
 515 002c 0648     		ldr	r0, .L37
 516 002e FFF7FEFF 		bl	HAL_TIMEx_MasterConfigSynchronization
 517              	.LVL21:
 518              		.loc 1 269 6 view .LVU173
 519 0032 28B9     		cbnz	r0, .L36
 520              	.L31:
 270:Src/tim.c     ****   {
 271:Src/tim.c     ****     Error_Handler();
 272:Src/tim.c     ****   }
 273:Src/tim.c     ****   /* USER CODE BEGIN TIM6_Init 2 */
 274:Src/tim.c     **** 
 275:Src/tim.c     ****   /* USER CODE END TIM6_Init 2 */
 276:Src/tim.c     **** 
ARM GAS  C:\Users\simon\AppData\Local\Temp\cc9kiOsk.s 			page 15


 277:Src/tim.c     **** }
 521              		.loc 1 277 1 view .LVU174
 522 0034 05B0     		add	sp, sp, #20
 523              	.LCFI14:
 524              		.cfi_remember_state
 525              		.cfi_def_cfa_offset 4
 526              		@ sp needed
 527 0036 5DF804FB 		ldr	pc, [sp], #4
 528              	.L35:
 529              	.LCFI15:
 530              		.cfi_restore_state
 265:Src/tim.c     ****   }
 531              		.loc 1 265 5 is_stmt 1 view .LVU175
 532 003a FFF7FEFF 		bl	Error_Handler
 533              	.LVL22:
 534 003e F1E7     		b	.L32
 535              	.L36:
 271:Src/tim.c     ****   }
 536              		.loc 1 271 5 view .LVU176
 537 0040 FFF7FEFF 		bl	Error_Handler
 538              	.LVL23:
 539              		.loc 1 277 1 is_stmt 0 view .LVU177
 540 0044 F6E7     		b	.L31
 541              	.L38:
 542 0046 00BF     		.align	2
 543              	.L37:
 544 0048 00000000 		.word	.LANCHOR3
 545 004c 00100040 		.word	1073745920
 546              		.cfi_endproc
 547              	.LFE335:
 549              		.section	.text.MX_TIM7_Init,"ax",%progbits
 550              		.align	1
 551              		.global	MX_TIM7_Init
 552              		.syntax unified
 553              		.thumb
 554              		.thumb_func
 556              	MX_TIM7_Init:
 557              	.LFB336:
 278:Src/tim.c     **** /* TIM7 init function */
 279:Src/tim.c     **** void MX_TIM7_Init(void)
 280:Src/tim.c     **** {
 558              		.loc 1 280 1 is_stmt 1 view -0
 559              		.cfi_startproc
 560              		@ args = 0, pretend = 0, frame = 16
 561              		@ frame_needed = 0, uses_anonymous_args = 0
 562 0000 00B5     		push	{lr}
 563              	.LCFI16:
 564              		.cfi_def_cfa_offset 4
 565              		.cfi_offset 14, -4
 566 0002 85B0     		sub	sp, sp, #20
 567              	.LCFI17:
 568              		.cfi_def_cfa_offset 24
 281:Src/tim.c     **** 
 282:Src/tim.c     ****   /* USER CODE BEGIN TIM7_Init 0 */
 283:Src/tim.c     **** 
 284:Src/tim.c     ****   /* USER CODE END TIM7_Init 0 */
 285:Src/tim.c     **** 
ARM GAS  C:\Users\simon\AppData\Local\Temp\cc9kiOsk.s 			page 16


 286:Src/tim.c     ****   TIM_MasterConfigTypeDef sMasterConfig = {0};
 569              		.loc 1 286 3 view .LVU179
 570              		.loc 1 286 27 is_stmt 0 view .LVU180
 571 0004 0023     		movs	r3, #0
 572 0006 0193     		str	r3, [sp, #4]
 573 0008 0293     		str	r3, [sp, #8]
 574 000a 0393     		str	r3, [sp, #12]
 287:Src/tim.c     **** 
 288:Src/tim.c     ****   /* USER CODE BEGIN TIM7_Init 1 */
 289:Src/tim.c     **** 
 290:Src/tim.c     ****   /* USER CODE END TIM7_Init 1 */
 291:Src/tim.c     ****   htim7.Instance = TIM7;
 575              		.loc 1 291 3 is_stmt 1 view .LVU181
 576              		.loc 1 291 18 is_stmt 0 view .LVU182
 577 000c 0E48     		ldr	r0, .L45
 578 000e 0F4A     		ldr	r2, .L45+4
 579 0010 0260     		str	r2, [r0]
 292:Src/tim.c     ****   htim7.Init.Prescaler = 0;
 580              		.loc 1 292 3 is_stmt 1 view .LVU183
 581              		.loc 1 292 24 is_stmt 0 view .LVU184
 582 0012 4360     		str	r3, [r0, #4]
 293:Src/tim.c     ****   htim7.Init.CounterMode = TIM_COUNTERMODE_UP;
 583              		.loc 1 293 3 is_stmt 1 view .LVU185
 584              		.loc 1 293 26 is_stmt 0 view .LVU186
 585 0014 8360     		str	r3, [r0, #8]
 294:Src/tim.c     ****   htim7.Init.Period = 65535;
 586              		.loc 1 294 3 is_stmt 1 view .LVU187
 587              		.loc 1 294 21 is_stmt 0 view .LVU188
 588 0016 4FF6FF72 		movw	r2, #65535
 589 001a C260     		str	r2, [r0, #12]
 295:Src/tim.c     ****   htim7.Init.AutoReloadPreload = TIM_AUTORELOAD_PRELOAD_DISABLE;
 590              		.loc 1 295 3 is_stmt 1 view .LVU189
 591              		.loc 1 295 32 is_stmt 0 view .LVU190
 592 001c 8361     		str	r3, [r0, #24]
 296:Src/tim.c     ****   if (HAL_TIM_Base_Init(&htim7) != HAL_OK)
 593              		.loc 1 296 3 is_stmt 1 view .LVU191
 594              		.loc 1 296 7 is_stmt 0 view .LVU192
 595 001e FFF7FEFF 		bl	HAL_TIM_Base_Init
 596              	.LVL24:
 597              		.loc 1 296 6 view .LVU193
 598 0022 50B9     		cbnz	r0, .L43
 599              	.L40:
 297:Src/tim.c     ****   {
 298:Src/tim.c     ****     Error_Handler();
 299:Src/tim.c     ****   }
 300:Src/tim.c     ****   sMasterConfig.MasterOutputTrigger = TIM_TRGO_RESET;
 600              		.loc 1 300 3 is_stmt 1 view .LVU194
 601              		.loc 1 300 37 is_stmt 0 view .LVU195
 602 0024 0023     		movs	r3, #0
 603 0026 0193     		str	r3, [sp, #4]
 301:Src/tim.c     ****   sMasterConfig.MasterSlaveMode = TIM_MASTERSLAVEMODE_DISABLE;
 604              		.loc 1 301 3 is_stmt 1 view .LVU196
 605              		.loc 1 301 33 is_stmt 0 view .LVU197
 606 0028 0393     		str	r3, [sp, #12]
 302:Src/tim.c     ****   if (HAL_TIMEx_MasterConfigSynchronization(&htim7, &sMasterConfig) != HAL_OK)
 607              		.loc 1 302 3 is_stmt 1 view .LVU198
 608              		.loc 1 302 7 is_stmt 0 view .LVU199
ARM GAS  C:\Users\simon\AppData\Local\Temp\cc9kiOsk.s 			page 17


 609 002a 01A9     		add	r1, sp, #4
 610 002c 0648     		ldr	r0, .L45
 611 002e FFF7FEFF 		bl	HAL_TIMEx_MasterConfigSynchronization
 612              	.LVL25:
 613              		.loc 1 302 6 view .LVU200
 614 0032 28B9     		cbnz	r0, .L44
 615              	.L39:
 303:Src/tim.c     ****   {
 304:Src/tim.c     ****     Error_Handler();
 305:Src/tim.c     ****   }
 306:Src/tim.c     ****   /* USER CODE BEGIN TIM7_Init 2 */
 307:Src/tim.c     **** 
 308:Src/tim.c     ****   /* USER CODE END TIM7_Init 2 */
 309:Src/tim.c     **** 
 310:Src/tim.c     **** }
 616              		.loc 1 310 1 view .LVU201
 617 0034 05B0     		add	sp, sp, #20
 618              	.LCFI18:
 619              		.cfi_remember_state
 620              		.cfi_def_cfa_offset 4
 621              		@ sp needed
 622 0036 5DF804FB 		ldr	pc, [sp], #4
 623              	.L43:
 624              	.LCFI19:
 625              		.cfi_restore_state
 298:Src/tim.c     ****   }
 626              		.loc 1 298 5 is_stmt 1 view .LVU202
 627 003a FFF7FEFF 		bl	Error_Handler
 628              	.LVL26:
 629 003e F1E7     		b	.L40
 630              	.L44:
 304:Src/tim.c     ****   }
 631              		.loc 1 304 5 view .LVU203
 632 0040 FFF7FEFF 		bl	Error_Handler
 633              	.LVL27:
 634              		.loc 1 310 1 is_stmt 0 view .LVU204
 635 0044 F6E7     		b	.L39
 636              	.L46:
 637 0046 00BF     		.align	2
 638              	.L45:
 639 0048 00000000 		.word	.LANCHOR4
 640 004c 00140040 		.word	1073746944
 641              		.cfi_endproc
 642              	.LFE336:
 644              		.section	.text.MX_TIM12_Init,"ax",%progbits
 645              		.align	1
 646              		.global	MX_TIM12_Init
 647              		.syntax unified
 648              		.thumb
 649              		.thumb_func
 651              	MX_TIM12_Init:
 652              	.LFB338:
 311:Src/tim.c     **** /* TIM8 init function */
 312:Src/tim.c     **** void MX_TIM8_Init(void)
 313:Src/tim.c     **** {
 314:Src/tim.c     **** 
 315:Src/tim.c     ****   /* USER CODE BEGIN TIM8_Init 0 */
ARM GAS  C:\Users\simon\AppData\Local\Temp\cc9kiOsk.s 			page 18


 316:Src/tim.c     **** 
 317:Src/tim.c     ****   /* USER CODE END TIM8_Init 0 */
 318:Src/tim.c     **** 
 319:Src/tim.c     ****   TIM_ClockConfigTypeDef sClockSourceConfig = {0};
 320:Src/tim.c     ****   TIM_MasterConfigTypeDef sMasterConfig = {0};
 321:Src/tim.c     ****   TIM_OC_InitTypeDef sConfigOC = {0};
 322:Src/tim.c     ****   TIM_BreakDeadTimeConfigTypeDef sBreakDeadTimeConfig = {0};
 323:Src/tim.c     **** 
 324:Src/tim.c     ****   /* USER CODE BEGIN TIM8_Init 1 */
 325:Src/tim.c     **** 
 326:Src/tim.c     ****   /* USER CODE END TIM8_Init 1 */
 327:Src/tim.c     ****   htim8.Instance = TIM8;
 328:Src/tim.c     ****   htim8.Init.Prescaler = 255;
 329:Src/tim.c     ****   htim8.Init.CounterMode = TIM_COUNTERMODE_UP;
 330:Src/tim.c     ****   htim8.Init.Period = 586;
 331:Src/tim.c     ****   htim8.Init.ClockDivision = TIM_CLOCKDIVISION_DIV1;
 332:Src/tim.c     ****   htim8.Init.RepetitionCounter = 0;
 333:Src/tim.c     ****   htim8.Init.AutoReloadPreload = TIM_AUTORELOAD_PRELOAD_DISABLE;
 334:Src/tim.c     ****   if (HAL_TIM_Base_Init(&htim8) != HAL_OK)
 335:Src/tim.c     ****   {
 336:Src/tim.c     ****     Error_Handler();
 337:Src/tim.c     ****   }
 338:Src/tim.c     ****   sClockSourceConfig.ClockSource = TIM_CLOCKSOURCE_INTERNAL;
 339:Src/tim.c     ****   if (HAL_TIM_ConfigClockSource(&htim8, &sClockSourceConfig) != HAL_OK)
 340:Src/tim.c     ****   {
 341:Src/tim.c     ****     Error_Handler();
 342:Src/tim.c     ****   }
 343:Src/tim.c     ****   if (HAL_TIM_PWM_Init(&htim8) != HAL_OK)
 344:Src/tim.c     ****   {
 345:Src/tim.c     ****     Error_Handler();
 346:Src/tim.c     ****   }
 347:Src/tim.c     ****   sMasterConfig.MasterOutputTrigger = TIM_TRGO_RESET;
 348:Src/tim.c     ****   sMasterConfig.MasterOutputTrigger2 = TIM_TRGO2_RESET;
 349:Src/tim.c     ****   sMasterConfig.MasterSlaveMode = TIM_MASTERSLAVEMODE_DISABLE;
 350:Src/tim.c     ****   if (HAL_TIMEx_MasterConfigSynchronization(&htim8, &sMasterConfig) != HAL_OK)
 351:Src/tim.c     ****   {
 352:Src/tim.c     ****     Error_Handler();
 353:Src/tim.c     ****   }
 354:Src/tim.c     ****   sConfigOC.OCMode = TIM_OCMODE_PWM2;
 355:Src/tim.c     ****   sConfigOC.Pulse = 0;
 356:Src/tim.c     ****   sConfigOC.OCPolarity = TIM_OCPOLARITY_HIGH;
 357:Src/tim.c     ****   sConfigOC.OCNPolarity = TIM_OCNPOLARITY_HIGH;
 358:Src/tim.c     ****   sConfigOC.OCFastMode = TIM_OCFAST_DISABLE;
 359:Src/tim.c     ****   sConfigOC.OCIdleState = TIM_OCIDLESTATE_RESET;
 360:Src/tim.c     ****   sConfigOC.OCNIdleState = TIM_OCNIDLESTATE_RESET;
 361:Src/tim.c     ****   if (HAL_TIM_PWM_ConfigChannel(&htim8, &sConfigOC, TIM_CHANNEL_2) != HAL_OK)
 362:Src/tim.c     ****   {
 363:Src/tim.c     ****     Error_Handler();
 364:Src/tim.c     ****   }
 365:Src/tim.c     ****   sBreakDeadTimeConfig.OffStateRunMode = TIM_OSSR_DISABLE;
 366:Src/tim.c     ****   sBreakDeadTimeConfig.OffStateIDLEMode = TIM_OSSI_DISABLE;
 367:Src/tim.c     ****   sBreakDeadTimeConfig.LockLevel = TIM_LOCKLEVEL_OFF;
 368:Src/tim.c     ****   sBreakDeadTimeConfig.DeadTime = 0;
 369:Src/tim.c     ****   sBreakDeadTimeConfig.BreakState = TIM_BREAK_DISABLE;
 370:Src/tim.c     ****   sBreakDeadTimeConfig.BreakPolarity = TIM_BREAKPOLARITY_HIGH;
 371:Src/tim.c     ****   sBreakDeadTimeConfig.BreakFilter = 0;
 372:Src/tim.c     ****   sBreakDeadTimeConfig.Break2State = TIM_BREAK2_DISABLE;
ARM GAS  C:\Users\simon\AppData\Local\Temp\cc9kiOsk.s 			page 19


 373:Src/tim.c     ****   sBreakDeadTimeConfig.Break2Polarity = TIM_BREAK2POLARITY_HIGH;
 374:Src/tim.c     ****   sBreakDeadTimeConfig.Break2Filter = 0;
 375:Src/tim.c     ****   sBreakDeadTimeConfig.AutomaticOutput = TIM_AUTOMATICOUTPUT_DISABLE;
 376:Src/tim.c     ****   if (HAL_TIMEx_ConfigBreakDeadTime(&htim8, &sBreakDeadTimeConfig) != HAL_OK)
 377:Src/tim.c     ****   {
 378:Src/tim.c     ****     Error_Handler();
 379:Src/tim.c     ****   }
 380:Src/tim.c     ****   /* USER CODE BEGIN TIM8_Init 2 */
 381:Src/tim.c     **** 
 382:Src/tim.c     ****   /* USER CODE END TIM8_Init 2 */
 383:Src/tim.c     ****   HAL_TIM_MspPostInit(&htim8);
 384:Src/tim.c     **** 
 385:Src/tim.c     **** }
 386:Src/tim.c     **** /* TIM12 init function */
 387:Src/tim.c     **** void MX_TIM12_Init(void)
 388:Src/tim.c     **** {
 653              		.loc 1 388 1 is_stmt 1 view -0
 654              		.cfi_startproc
 655              		@ args = 0, pretend = 0, frame = 40
 656              		@ frame_needed = 0, uses_anonymous_args = 0
 657 0000 00B5     		push	{lr}
 658              	.LCFI20:
 659              		.cfi_def_cfa_offset 4
 660              		.cfi_offset 14, -4
 661 0002 8BB0     		sub	sp, sp, #44
 662              	.LCFI21:
 663              		.cfi_def_cfa_offset 48
 389:Src/tim.c     **** 
 390:Src/tim.c     ****   /* USER CODE BEGIN TIM12_Init 0 */
 391:Src/tim.c     **** 
 392:Src/tim.c     ****   /* USER CODE END TIM12_Init 0 */
 393:Src/tim.c     **** 
 394:Src/tim.c     ****   TIM_SlaveConfigTypeDef sSlaveConfig = {0};
 664              		.loc 1 394 3 view .LVU206
 665              		.loc 1 394 26 is_stmt 0 view .LVU207
 666 0004 0023     		movs	r3, #0
 667 0006 0593     		str	r3, [sp, #20]
 668 0008 0693     		str	r3, [sp, #24]
 669 000a 0793     		str	r3, [sp, #28]
 670 000c 0893     		str	r3, [sp, #32]
 671 000e 0993     		str	r3, [sp, #36]
 395:Src/tim.c     ****   TIM_IC_InitTypeDef sConfigIC = {0};
 672              		.loc 1 395 3 is_stmt 1 view .LVU208
 673              		.loc 1 395 22 is_stmt 0 view .LVU209
 674 0010 0193     		str	r3, [sp, #4]
 675 0012 0293     		str	r3, [sp, #8]
 676 0014 0393     		str	r3, [sp, #12]
 677 0016 0493     		str	r3, [sp, #16]
 396:Src/tim.c     **** 
 397:Src/tim.c     ****   /* USER CODE BEGIN TIM12_Init 1 */
 398:Src/tim.c     **** 
 399:Src/tim.c     ****   /* USER CODE END TIM12_Init 1 */
 400:Src/tim.c     ****   htim12.Instance = TIM12;
 678              		.loc 1 400 3 is_stmt 1 view .LVU210
 679              		.loc 1 400 19 is_stmt 0 view .LVU211
 680 0018 1E48     		ldr	r0, .L57
 681 001a 1F4A     		ldr	r2, .L57+4
ARM GAS  C:\Users\simon\AppData\Local\Temp\cc9kiOsk.s 			page 20


 682 001c 0260     		str	r2, [r0]
 401:Src/tim.c     ****   htim12.Init.Prescaler = 0;
 683              		.loc 1 401 3 is_stmt 1 view .LVU212
 684              		.loc 1 401 25 is_stmt 0 view .LVU213
 685 001e 4360     		str	r3, [r0, #4]
 402:Src/tim.c     ****   htim12.Init.CounterMode = TIM_COUNTERMODE_UP;
 686              		.loc 1 402 3 is_stmt 1 view .LVU214
 687              		.loc 1 402 27 is_stmt 0 view .LVU215
 688 0020 8360     		str	r3, [r0, #8]
 403:Src/tim.c     ****   htim12.Init.Period = 65535;
 689              		.loc 1 403 3 is_stmt 1 view .LVU216
 690              		.loc 1 403 22 is_stmt 0 view .LVU217
 691 0022 4FF6FF72 		movw	r2, #65535
 692 0026 C260     		str	r2, [r0, #12]
 404:Src/tim.c     ****   htim12.Init.ClockDivision = TIM_CLOCKDIVISION_DIV1;
 693              		.loc 1 404 3 is_stmt 1 view .LVU218
 694              		.loc 1 404 29 is_stmt 0 view .LVU219
 695 0028 0361     		str	r3, [r0, #16]
 405:Src/tim.c     ****   htim12.Init.AutoReloadPreload = TIM_AUTORELOAD_PRELOAD_DISABLE;
 696              		.loc 1 405 3 is_stmt 1 view .LVU220
 697              		.loc 1 405 33 is_stmt 0 view .LVU221
 698 002a 8361     		str	r3, [r0, #24]
 406:Src/tim.c     ****   if (HAL_TIM_IC_Init(&htim12) != HAL_OK)
 699              		.loc 1 406 3 is_stmt 1 view .LVU222
 700              		.loc 1 406 7 is_stmt 0 view .LVU223
 701 002c FFF7FEFF 		bl	HAL_TIM_IC_Init
 702              	.LVL28:
 703              		.loc 1 406 6 view .LVU224
 704 0030 20BB     		cbnz	r0, .L53
 705              	.L48:
 407:Src/tim.c     ****   {
 408:Src/tim.c     ****     Error_Handler();
 409:Src/tim.c     ****   }
 410:Src/tim.c     ****   sSlaveConfig.SlaveMode = TIM_SLAVEMODE_RESET;
 706              		.loc 1 410 3 is_stmt 1 view .LVU225
 707              		.loc 1 410 26 is_stmt 0 view .LVU226
 708 0032 0423     		movs	r3, #4
 709 0034 0593     		str	r3, [sp, #20]
 411:Src/tim.c     ****   sSlaveConfig.InputTrigger = TIM_TS_TI1FP1;
 710              		.loc 1 411 3 is_stmt 1 view .LVU227
 711              		.loc 1 411 29 is_stmt 0 view .LVU228
 712 0036 5023     		movs	r3, #80
 713 0038 0693     		str	r3, [sp, #24]
 412:Src/tim.c     ****   sSlaveConfig.TriggerPolarity = TIM_INPUTCHANNELPOLARITY_RISING;
 714              		.loc 1 412 3 is_stmt 1 view .LVU229
 715              		.loc 1 412 32 is_stmt 0 view .LVU230
 716 003a 0023     		movs	r3, #0
 717 003c 0793     		str	r3, [sp, #28]
 413:Src/tim.c     ****   sSlaveConfig.TriggerPrescaler = TIM_ICPSC_DIV1;
 718              		.loc 1 413 3 is_stmt 1 view .LVU231
 719              		.loc 1 413 33 is_stmt 0 view .LVU232
 720 003e 0893     		str	r3, [sp, #32]
 414:Src/tim.c     ****   sSlaveConfig.TriggerFilter = 0;
 721              		.loc 1 414 3 is_stmt 1 view .LVU233
 722              		.loc 1 414 30 is_stmt 0 view .LVU234
 723 0040 0993     		str	r3, [sp, #36]
 415:Src/tim.c     ****   if (HAL_TIM_SlaveConfigSynchro(&htim12, &sSlaveConfig) != HAL_OK)
ARM GAS  C:\Users\simon\AppData\Local\Temp\cc9kiOsk.s 			page 21


 724              		.loc 1 415 3 is_stmt 1 view .LVU235
 725              		.loc 1 415 7 is_stmt 0 view .LVU236
 726 0042 05A9     		add	r1, sp, #20
 727 0044 1348     		ldr	r0, .L57
 728 0046 FFF7FEFF 		bl	HAL_TIM_SlaveConfigSynchro
 729              	.LVL29:
 730              		.loc 1 415 6 view .LVU237
 731 004a D0B9     		cbnz	r0, .L54
 732              	.L49:
 416:Src/tim.c     ****   {
 417:Src/tim.c     ****     Error_Handler();
 418:Src/tim.c     ****   }
 419:Src/tim.c     ****   sConfigIC.ICPolarity = TIM_INPUTCHANNELPOLARITY_RISING;
 733              		.loc 1 419 3 is_stmt 1 view .LVU238
 734              		.loc 1 419 24 is_stmt 0 view .LVU239
 735 004c 0022     		movs	r2, #0
 736 004e 0192     		str	r2, [sp, #4]
 420:Src/tim.c     ****   sConfigIC.ICSelection = TIM_ICSELECTION_DIRECTTI;
 737              		.loc 1 420 3 is_stmt 1 view .LVU240
 738              		.loc 1 420 25 is_stmt 0 view .LVU241
 739 0050 0123     		movs	r3, #1
 740 0052 0293     		str	r3, [sp, #8]
 421:Src/tim.c     ****   sConfigIC.ICPrescaler = TIM_ICPSC_DIV1;
 741              		.loc 1 421 3 is_stmt 1 view .LVU242
 742              		.loc 1 421 25 is_stmt 0 view .LVU243
 743 0054 0392     		str	r2, [sp, #12]
 422:Src/tim.c     ****   sConfigIC.ICFilter = 0;
 744              		.loc 1 422 3 is_stmt 1 view .LVU244
 745              		.loc 1 422 22 is_stmt 0 view .LVU245
 746 0056 0492     		str	r2, [sp, #16]
 423:Src/tim.c     ****   if (HAL_TIM_IC_ConfigChannel(&htim12, &sConfigIC, TIM_CHANNEL_1) != HAL_OK)
 747              		.loc 1 423 3 is_stmt 1 view .LVU246
 748              		.loc 1 423 7 is_stmt 0 view .LVU247
 749 0058 01A9     		add	r1, sp, #4
 750 005a 0E48     		ldr	r0, .L57
 751 005c FFF7FEFF 		bl	HAL_TIM_IC_ConfigChannel
 752              	.LVL30:
 753              		.loc 1 423 6 view .LVU248
 754 0060 90B9     		cbnz	r0, .L55
 755              	.L50:
 424:Src/tim.c     ****   {
 425:Src/tim.c     ****     Error_Handler();
 426:Src/tim.c     ****   }
 427:Src/tim.c     ****   sConfigIC.ICPolarity = TIM_INPUTCHANNELPOLARITY_FALLING;
 756              		.loc 1 427 3 is_stmt 1 view .LVU249
 757              		.loc 1 427 24 is_stmt 0 view .LVU250
 758 0062 0223     		movs	r3, #2
 759 0064 0193     		str	r3, [sp, #4]
 428:Src/tim.c     ****   sConfigIC.ICSelection = TIM_ICSELECTION_INDIRECTTI;
 760              		.loc 1 428 3 is_stmt 1 view .LVU251
 761              		.loc 1 428 25 is_stmt 0 view .LVU252
 762 0066 0293     		str	r3, [sp, #8]
 429:Src/tim.c     ****   if (HAL_TIM_IC_ConfigChannel(&htim12, &sConfigIC, TIM_CHANNEL_2) != HAL_OK)
 763              		.loc 1 429 3 is_stmt 1 view .LVU253
 764              		.loc 1 429 7 is_stmt 0 view .LVU254
 765 0068 0422     		movs	r2, #4
 766 006a 0DEB0201 		add	r1, sp, r2
ARM GAS  C:\Users\simon\AppData\Local\Temp\cc9kiOsk.s 			page 22


 767 006e 0948     		ldr	r0, .L57
 768 0070 FFF7FEFF 		bl	HAL_TIM_IC_ConfigChannel
 769              	.LVL31:
 770              		.loc 1 429 6 view .LVU255
 771 0074 58B9     		cbnz	r0, .L56
 772              	.L47:
 430:Src/tim.c     ****   {
 431:Src/tim.c     ****     Error_Handler();
 432:Src/tim.c     ****   }
 433:Src/tim.c     ****   /* USER CODE BEGIN TIM12_Init 2 */
 434:Src/tim.c     **** 
 435:Src/tim.c     ****   /* USER CODE END TIM12_Init 2 */
 436:Src/tim.c     **** 
 437:Src/tim.c     **** }
 773              		.loc 1 437 1 view .LVU256
 774 0076 0BB0     		add	sp, sp, #44
 775              	.LCFI22:
 776              		.cfi_remember_state
 777              		.cfi_def_cfa_offset 4
 778              		@ sp needed
 779 0078 5DF804FB 		ldr	pc, [sp], #4
 780              	.L53:
 781              	.LCFI23:
 782              		.cfi_restore_state
 408:Src/tim.c     ****   }
 783              		.loc 1 408 5 is_stmt 1 view .LVU257
 784 007c FFF7FEFF 		bl	Error_Handler
 785              	.LVL32:
 786 0080 D7E7     		b	.L48
 787              	.L54:
 417:Src/tim.c     ****   }
 788              		.loc 1 417 5 view .LVU258
 789 0082 FFF7FEFF 		bl	Error_Handler
 790              	.LVL33:
 791 0086 E1E7     		b	.L49
 792              	.L55:
 425:Src/tim.c     ****   }
 793              		.loc 1 425 5 view .LVU259
 794 0088 FFF7FEFF 		bl	Error_Handler
 795              	.LVL34:
 796 008c E9E7     		b	.L50
 797              	.L56:
 431:Src/tim.c     ****   }
 798              		.loc 1 431 5 view .LVU260
 799 008e FFF7FEFF 		bl	Error_Handler
 800              	.LVL35:
 801              		.loc 1 437 1 is_stmt 0 view .LVU261
 802 0092 F0E7     		b	.L47
 803              	.L58:
 804              		.align	2
 805              	.L57:
 806 0094 00000000 		.word	.LANCHOR5
 807 0098 00180040 		.word	1073747968
 808              		.cfi_endproc
 809              	.LFE338:
 811              		.section	.text.MX_TIM13_Init,"ax",%progbits
 812              		.align	1
ARM GAS  C:\Users\simon\AppData\Local\Temp\cc9kiOsk.s 			page 23


 813              		.global	MX_TIM13_Init
 814              		.syntax unified
 815              		.thumb
 816              		.thumb_func
 818              	MX_TIM13_Init:
 819              	.LFB339:
 438:Src/tim.c     **** /* TIM13 init function */
 439:Src/tim.c     **** void MX_TIM13_Init(void)
 440:Src/tim.c     **** {
 820              		.loc 1 440 1 is_stmt 1 view -0
 821              		.cfi_startproc
 822              		@ args = 0, pretend = 0, frame = 0
 823              		@ frame_needed = 0, uses_anonymous_args = 0
 824 0000 08B5     		push	{r3, lr}
 825              	.LCFI24:
 826              		.cfi_def_cfa_offset 8
 827              		.cfi_offset 3, -8
 828              		.cfi_offset 14, -4
 441:Src/tim.c     **** 
 442:Src/tim.c     ****   /* USER CODE BEGIN TIM13_Init 0 */
 443:Src/tim.c     **** 
 444:Src/tim.c     ****   /* USER CODE END TIM13_Init 0 */
 445:Src/tim.c     **** 
 446:Src/tim.c     ****   /* USER CODE BEGIN TIM13_Init 1 */
 447:Src/tim.c     **** 
 448:Src/tim.c     ****   /* USER CODE END TIM13_Init 1 */
 449:Src/tim.c     ****   htim13.Instance = TIM13;
 829              		.loc 1 449 3 view .LVU263
 830              		.loc 1 449 19 is_stmt 0 view .LVU264
 831 0002 0948     		ldr	r0, .L63
 832 0004 094B     		ldr	r3, .L63+4
 833 0006 0360     		str	r3, [r0]
 450:Src/tim.c     ****   htim13.Init.Prescaler = 0;
 834              		.loc 1 450 3 is_stmt 1 view .LVU265
 835              		.loc 1 450 25 is_stmt 0 view .LVU266
 836 0008 0023     		movs	r3, #0
 837 000a 4360     		str	r3, [r0, #4]
 451:Src/tim.c     ****   htim13.Init.CounterMode = TIM_COUNTERMODE_UP;
 838              		.loc 1 451 3 is_stmt 1 view .LVU267
 839              		.loc 1 451 27 is_stmt 0 view .LVU268
 840 000c 8360     		str	r3, [r0, #8]
 452:Src/tim.c     ****   htim13.Init.Period = 65535;
 841              		.loc 1 452 3 is_stmt 1 view .LVU269
 842              		.loc 1 452 22 is_stmt 0 view .LVU270
 843 000e 4FF6FF72 		movw	r2, #65535
 844 0012 C260     		str	r2, [r0, #12]
 453:Src/tim.c     ****   htim13.Init.ClockDivision = TIM_CLOCKDIVISION_DIV1;
 845              		.loc 1 453 3 is_stmt 1 view .LVU271
 846              		.loc 1 453 29 is_stmt 0 view .LVU272
 847 0014 0361     		str	r3, [r0, #16]
 454:Src/tim.c     ****   htim13.Init.AutoReloadPreload = TIM_AUTORELOAD_PRELOAD_DISABLE;
 848              		.loc 1 454 3 is_stmt 1 view .LVU273
 849              		.loc 1 454 33 is_stmt 0 view .LVU274
 850 0016 8361     		str	r3, [r0, #24]
 455:Src/tim.c     ****   if (HAL_TIM_Base_Init(&htim13) != HAL_OK)
 851              		.loc 1 455 3 is_stmt 1 view .LVU275
 852              		.loc 1 455 7 is_stmt 0 view .LVU276
ARM GAS  C:\Users\simon\AppData\Local\Temp\cc9kiOsk.s 			page 24


 853 0018 FFF7FEFF 		bl	HAL_TIM_Base_Init
 854              	.LVL36:
 855              		.loc 1 455 6 view .LVU277
 856 001c 00B9     		cbnz	r0, .L62
 857              	.L59:
 456:Src/tim.c     ****   {
 457:Src/tim.c     ****     Error_Handler();
 458:Src/tim.c     ****   }
 459:Src/tim.c     ****   /* USER CODE BEGIN TIM13_Init 2 */
 460:Src/tim.c     **** 
 461:Src/tim.c     ****   /* USER CODE END TIM13_Init 2 */
 462:Src/tim.c     **** 
 463:Src/tim.c     **** }
 858              		.loc 1 463 1 view .LVU278
 859 001e 08BD     		pop	{r3, pc}
 860              	.L62:
 457:Src/tim.c     ****   }
 861              		.loc 1 457 5 is_stmt 1 view .LVU279
 862 0020 FFF7FEFF 		bl	Error_Handler
 863              	.LVL37:
 864              		.loc 1 463 1 is_stmt 0 view .LVU280
 865 0024 FBE7     		b	.L59
 866              	.L64:
 867 0026 00BF     		.align	2
 868              	.L63:
 869 0028 00000000 		.word	.LANCHOR6
 870 002c 001C0040 		.word	1073748992
 871              		.cfi_endproc
 872              	.LFE339:
 874              		.section	.text.MX_TIM15_Init,"ax",%progbits
 875              		.align	1
 876              		.global	MX_TIM15_Init
 877              		.syntax unified
 878              		.thumb
 879              		.thumb_func
 881              	MX_TIM15_Init:
 882              	.LFB341:
 464:Src/tim.c     **** /* TIM14 init function */
 465:Src/tim.c     **** void MX_TIM14_Init(void)
 466:Src/tim.c     **** {
 467:Src/tim.c     **** 
 468:Src/tim.c     ****   /* USER CODE BEGIN TIM14_Init 0 */
 469:Src/tim.c     **** 
 470:Src/tim.c     ****   /* USER CODE END TIM14_Init 0 */
 471:Src/tim.c     **** 
 472:Src/tim.c     ****   TIM_OC_InitTypeDef sConfigOC = {0};
 473:Src/tim.c     **** 
 474:Src/tim.c     ****   /* USER CODE BEGIN TIM14_Init 1 */
 475:Src/tim.c     **** 
 476:Src/tim.c     ****   /* USER CODE END TIM14_Init 1 */
 477:Src/tim.c     ****   htim14.Instance = TIM14;
 478:Src/tim.c     ****   htim14.Init.Prescaler = 0;
 479:Src/tim.c     ****   htim14.Init.CounterMode = TIM_COUNTERMODE_UP;
 480:Src/tim.c     ****   htim14.Init.Period = 65535;
 481:Src/tim.c     ****   htim14.Init.ClockDivision = TIM_CLOCKDIVISION_DIV1;
 482:Src/tim.c     ****   htim14.Init.AutoReloadPreload = TIM_AUTORELOAD_PRELOAD_DISABLE;
 483:Src/tim.c     ****   if (HAL_TIM_Base_Init(&htim14) != HAL_OK)
ARM GAS  C:\Users\simon\AppData\Local\Temp\cc9kiOsk.s 			page 25


 484:Src/tim.c     ****   {
 485:Src/tim.c     ****     Error_Handler();
 486:Src/tim.c     ****   }
 487:Src/tim.c     ****   if (HAL_TIM_PWM_Init(&htim14) != HAL_OK)
 488:Src/tim.c     ****   {
 489:Src/tim.c     ****     Error_Handler();
 490:Src/tim.c     ****   }
 491:Src/tim.c     ****   sConfigOC.OCMode = TIM_OCMODE_PWM1;
 492:Src/tim.c     ****   sConfigOC.Pulse = 0;
 493:Src/tim.c     ****   sConfigOC.OCPolarity = TIM_OCPOLARITY_HIGH;
 494:Src/tim.c     ****   sConfigOC.OCFastMode = TIM_OCFAST_DISABLE;
 495:Src/tim.c     ****   if (HAL_TIM_PWM_ConfigChannel(&htim14, &sConfigOC, TIM_CHANNEL_1) != HAL_OK)
 496:Src/tim.c     ****   {
 497:Src/tim.c     ****     Error_Handler();
 498:Src/tim.c     ****   }
 499:Src/tim.c     ****   /* USER CODE BEGIN TIM14_Init 2 */
 500:Src/tim.c     **** 
 501:Src/tim.c     ****   /* USER CODE END TIM14_Init 2 */
 502:Src/tim.c     ****   HAL_TIM_MspPostInit(&htim14);
 503:Src/tim.c     **** 
 504:Src/tim.c     **** }
 505:Src/tim.c     **** /* TIM15 init function */
 506:Src/tim.c     **** void MX_TIM15_Init(void)
 507:Src/tim.c     **** {
 883              		.loc 1 507 1 is_stmt 1 view -0
 884              		.cfi_startproc
 885              		@ args = 0, pretend = 0, frame = 32
 886              		@ frame_needed = 0, uses_anonymous_args = 0
 887 0000 00B5     		push	{lr}
 888              	.LCFI25:
 889              		.cfi_def_cfa_offset 4
 890              		.cfi_offset 14, -4
 891 0002 89B0     		sub	sp, sp, #36
 892              	.LCFI26:
 893              		.cfi_def_cfa_offset 40
 508:Src/tim.c     **** 
 509:Src/tim.c     ****   /* USER CODE BEGIN TIM15_Init 0 */
 510:Src/tim.c     **** 
 511:Src/tim.c     ****   /* USER CODE END TIM15_Init 0 */
 512:Src/tim.c     **** 
 513:Src/tim.c     ****   TIM_MasterConfigTypeDef sMasterConfig = {0};
 894              		.loc 1 513 3 view .LVU282
 895              		.loc 1 513 27 is_stmt 0 view .LVU283
 896 0004 0023     		movs	r3, #0
 897 0006 0593     		str	r3, [sp, #20]
 898 0008 0693     		str	r3, [sp, #24]
 899 000a 0793     		str	r3, [sp, #28]
 514:Src/tim.c     ****   TIM_IC_InitTypeDef sConfigIC = {0};
 900              		.loc 1 514 3 is_stmt 1 view .LVU284
 901              		.loc 1 514 22 is_stmt 0 view .LVU285
 902 000c 0193     		str	r3, [sp, #4]
 903 000e 0293     		str	r3, [sp, #8]
 904 0010 0393     		str	r3, [sp, #12]
 905 0012 0493     		str	r3, [sp, #16]
 515:Src/tim.c     **** 
 516:Src/tim.c     ****   /* USER CODE BEGIN TIM15_Init 1 */
 517:Src/tim.c     **** 
ARM GAS  C:\Users\simon\AppData\Local\Temp\cc9kiOsk.s 			page 26


 518:Src/tim.c     ****   /* USER CODE END TIM15_Init 1 */
 519:Src/tim.c     ****   htim15.Instance = TIM15;
 906              		.loc 1 519 3 is_stmt 1 view .LVU286
 907              		.loc 1 519 19 is_stmt 0 view .LVU287
 908 0014 1748     		ldr	r0, .L73
 909 0016 184A     		ldr	r2, .L73+4
 910 0018 0260     		str	r2, [r0]
 520:Src/tim.c     ****   htim15.Init.Prescaler = 0;
 911              		.loc 1 520 3 is_stmt 1 view .LVU288
 912              		.loc 1 520 25 is_stmt 0 view .LVU289
 913 001a 4360     		str	r3, [r0, #4]
 521:Src/tim.c     ****   htim15.Init.CounterMode = TIM_COUNTERMODE_UP;
 914              		.loc 1 521 3 is_stmt 1 view .LVU290
 915              		.loc 1 521 27 is_stmt 0 view .LVU291
 916 001c 8360     		str	r3, [r0, #8]
 522:Src/tim.c     ****   htim15.Init.Period = 65535;
 917              		.loc 1 522 3 is_stmt 1 view .LVU292
 918              		.loc 1 522 22 is_stmt 0 view .LVU293
 919 001e 4FF6FF72 		movw	r2, #65535
 920 0022 C260     		str	r2, [r0, #12]
 523:Src/tim.c     ****   htim15.Init.ClockDivision = TIM_CLOCKDIVISION_DIV1;
 921              		.loc 1 523 3 is_stmt 1 view .LVU294
 922              		.loc 1 523 29 is_stmt 0 view .LVU295
 923 0024 0361     		str	r3, [r0, #16]
 524:Src/tim.c     ****   htim15.Init.RepetitionCounter = 0;
 924              		.loc 1 524 3 is_stmt 1 view .LVU296
 925              		.loc 1 524 33 is_stmt 0 view .LVU297
 926 0026 4361     		str	r3, [r0, #20]
 525:Src/tim.c     ****   htim15.Init.AutoReloadPreload = TIM_AUTORELOAD_PRELOAD_DISABLE;
 927              		.loc 1 525 3 is_stmt 1 view .LVU298
 928              		.loc 1 525 33 is_stmt 0 view .LVU299
 929 0028 8361     		str	r3, [r0, #24]
 526:Src/tim.c     ****   if (HAL_TIM_IC_Init(&htim15) != HAL_OK)
 930              		.loc 1 526 3 is_stmt 1 view .LVU300
 931              		.loc 1 526 7 is_stmt 0 view .LVU301
 932 002a FFF7FEFF 		bl	HAL_TIM_IC_Init
 933              	.LVL38:
 934              		.loc 1 526 6 view .LVU302
 935 002e B8B9     		cbnz	r0, .L70
 936              	.L66:
 527:Src/tim.c     ****   {
 528:Src/tim.c     ****     Error_Handler();
 529:Src/tim.c     ****   }
 530:Src/tim.c     ****   sMasterConfig.MasterOutputTrigger = TIM_TRGO_RESET;
 937              		.loc 1 530 3 is_stmt 1 view .LVU303
 938              		.loc 1 530 37 is_stmt 0 view .LVU304
 939 0030 0023     		movs	r3, #0
 940 0032 0593     		str	r3, [sp, #20]
 531:Src/tim.c     ****   sMasterConfig.MasterSlaveMode = TIM_MASTERSLAVEMODE_DISABLE;
 941              		.loc 1 531 3 is_stmt 1 view .LVU305
 942              		.loc 1 531 33 is_stmt 0 view .LVU306
 943 0034 0793     		str	r3, [sp, #28]
 532:Src/tim.c     ****   if (HAL_TIMEx_MasterConfigSynchronization(&htim15, &sMasterConfig) != HAL_OK)
 944              		.loc 1 532 3 is_stmt 1 view .LVU307
 945              		.loc 1 532 7 is_stmt 0 view .LVU308
 946 0036 05A9     		add	r1, sp, #20
 947 0038 0E48     		ldr	r0, .L73
ARM GAS  C:\Users\simon\AppData\Local\Temp\cc9kiOsk.s 			page 27


 948 003a FFF7FEFF 		bl	HAL_TIMEx_MasterConfigSynchronization
 949              	.LVL39:
 950              		.loc 1 532 6 view .LVU309
 951 003e 90B9     		cbnz	r0, .L71
 952              	.L67:
 533:Src/tim.c     ****   {
 534:Src/tim.c     ****     Error_Handler();
 535:Src/tim.c     ****   }
 536:Src/tim.c     ****   sConfigIC.ICPolarity = TIM_INPUTCHANNELPOLARITY_RISING;
 953              		.loc 1 536 3 is_stmt 1 view .LVU310
 954              		.loc 1 536 24 is_stmt 0 view .LVU311
 955 0040 0023     		movs	r3, #0
 956 0042 0193     		str	r3, [sp, #4]
 537:Src/tim.c     ****   sConfigIC.ICSelection = TIM_ICSELECTION_DIRECTTI;
 957              		.loc 1 537 3 is_stmt 1 view .LVU312
 958              		.loc 1 537 25 is_stmt 0 view .LVU313
 959 0044 0122     		movs	r2, #1
 960 0046 0292     		str	r2, [sp, #8]
 538:Src/tim.c     ****   sConfigIC.ICPrescaler = TIM_ICPSC_DIV1;
 961              		.loc 1 538 3 is_stmt 1 view .LVU314
 962              		.loc 1 538 25 is_stmt 0 view .LVU315
 963 0048 0393     		str	r3, [sp, #12]
 539:Src/tim.c     ****   sConfigIC.ICFilter = 0;
 964              		.loc 1 539 3 is_stmt 1 view .LVU316
 965              		.loc 1 539 22 is_stmt 0 view .LVU317
 966 004a 0493     		str	r3, [sp, #16]
 540:Src/tim.c     ****   if (HAL_TIM_IC_ConfigChannel(&htim15, &sConfigIC, TIM_CHANNEL_2) != HAL_OK)
 967              		.loc 1 540 3 is_stmt 1 view .LVU318
 968              		.loc 1 540 7 is_stmt 0 view .LVU319
 969 004c 0422     		movs	r2, #4
 970 004e 0DEB0201 		add	r1, sp, r2
 971 0052 0848     		ldr	r0, .L73
 972 0054 FFF7FEFF 		bl	HAL_TIM_IC_ConfigChannel
 973              	.LVL40:
 974              		.loc 1 540 6 view .LVU320
 975 0058 40B9     		cbnz	r0, .L72
 976              	.L65:
 541:Src/tim.c     ****   {
 542:Src/tim.c     ****     Error_Handler();
 543:Src/tim.c     ****   }
 544:Src/tim.c     ****   /* USER CODE BEGIN TIM15_Init 2 */
 545:Src/tim.c     **** 
 546:Src/tim.c     ****   /* USER CODE END TIM15_Init 2 */
 547:Src/tim.c     **** 
 548:Src/tim.c     **** }
 977              		.loc 1 548 1 view .LVU321
 978 005a 09B0     		add	sp, sp, #36
 979              	.LCFI27:
 980              		.cfi_remember_state
 981              		.cfi_def_cfa_offset 4
 982              		@ sp needed
 983 005c 5DF804FB 		ldr	pc, [sp], #4
 984              	.L70:
 985              	.LCFI28:
 986              		.cfi_restore_state
 528:Src/tim.c     ****   }
 987              		.loc 1 528 5 is_stmt 1 view .LVU322
ARM GAS  C:\Users\simon\AppData\Local\Temp\cc9kiOsk.s 			page 28


 988 0060 FFF7FEFF 		bl	Error_Handler
 989              	.LVL41:
 990 0064 E4E7     		b	.L66
 991              	.L71:
 534:Src/tim.c     ****   }
 992              		.loc 1 534 5 view .LVU323
 993 0066 FFF7FEFF 		bl	Error_Handler
 994              	.LVL42:
 995 006a E9E7     		b	.L67
 996              	.L72:
 542:Src/tim.c     ****   }
 997              		.loc 1 542 5 view .LVU324
 998 006c FFF7FEFF 		bl	Error_Handler
 999              	.LVL43:
 1000              		.loc 1 548 1 is_stmt 0 view .LVU325
 1001 0070 F3E7     		b	.L65
 1002              	.L74:
 1003 0072 00BF     		.align	2
 1004              	.L73:
 1005 0074 00000000 		.word	.LANCHOR7
 1006 0078 00400140 		.word	1073823744
 1007              		.cfi_endproc
 1008              	.LFE341:
 1010              		.section	.text.MX_TIM16_Init,"ax",%progbits
 1011              		.align	1
 1012              		.global	MX_TIM16_Init
 1013              		.syntax unified
 1014              		.thumb
 1015              		.thumb_func
 1017              	MX_TIM16_Init:
 1018              	.LFB342:
 549:Src/tim.c     **** /* TIM16 init function */
 550:Src/tim.c     **** void MX_TIM16_Init(void)
 551:Src/tim.c     **** {
 1019              		.loc 1 551 1 is_stmt 1 view -0
 1020              		.cfi_startproc
 1021              		@ args = 0, pretend = 0, frame = 0
 1022              		@ frame_needed = 0, uses_anonymous_args = 0
 1023 0000 08B5     		push	{r3, lr}
 1024              	.LCFI29:
 1025              		.cfi_def_cfa_offset 8
 1026              		.cfi_offset 3, -8
 1027              		.cfi_offset 14, -4
 552:Src/tim.c     **** 
 553:Src/tim.c     ****   /* USER CODE BEGIN TIM16_Init 0 */
 554:Src/tim.c     **** 
 555:Src/tim.c     ****   /* USER CODE END TIM16_Init 0 */
 556:Src/tim.c     **** 
 557:Src/tim.c     ****   /* USER CODE BEGIN TIM16_Init 1 */
 558:Src/tim.c     **** 
 559:Src/tim.c     ****   /* USER CODE END TIM16_Init 1 */
 560:Src/tim.c     ****   htim16.Instance = TIM16;
 1028              		.loc 1 560 3 view .LVU327
 1029              		.loc 1 560 19 is_stmt 0 view .LVU328
 1030 0002 0948     		ldr	r0, .L79
 1031 0004 094B     		ldr	r3, .L79+4
 1032 0006 0360     		str	r3, [r0]
ARM GAS  C:\Users\simon\AppData\Local\Temp\cc9kiOsk.s 			page 29


 561:Src/tim.c     ****   htim16.Init.Prescaler = 0;
 1033              		.loc 1 561 3 is_stmt 1 view .LVU329
 1034              		.loc 1 561 25 is_stmt 0 view .LVU330
 1035 0008 0023     		movs	r3, #0
 1036 000a 4360     		str	r3, [r0, #4]
 562:Src/tim.c     ****   htim16.Init.CounterMode = TIM_COUNTERMODE_UP;
 1037              		.loc 1 562 3 is_stmt 1 view .LVU331
 1038              		.loc 1 562 27 is_stmt 0 view .LVU332
 1039 000c 8360     		str	r3, [r0, #8]
 563:Src/tim.c     ****   htim16.Init.Period = 65535;
 1040              		.loc 1 563 3 is_stmt 1 view .LVU333
 1041              		.loc 1 563 22 is_stmt 0 view .LVU334
 1042 000e 4FF6FF72 		movw	r2, #65535
 1043 0012 C260     		str	r2, [r0, #12]
 564:Src/tim.c     ****   htim16.Init.ClockDivision = TIM_CLOCKDIVISION_DIV1;
 1044              		.loc 1 564 3 is_stmt 1 view .LVU335
 1045              		.loc 1 564 29 is_stmt 0 view .LVU336
 1046 0014 0361     		str	r3, [r0, #16]
 565:Src/tim.c     ****   htim16.Init.RepetitionCounter = 0;
 1047              		.loc 1 565 3 is_stmt 1 view .LVU337
 1048              		.loc 1 565 33 is_stmt 0 view .LVU338
 1049 0016 4361     		str	r3, [r0, #20]
 566:Src/tim.c     ****   htim16.Init.AutoReloadPreload = TIM_AUTORELOAD_PRELOAD_DISABLE;
 1050              		.loc 1 566 3 is_stmt 1 view .LVU339
 1051              		.loc 1 566 33 is_stmt 0 view .LVU340
 1052 0018 8361     		str	r3, [r0, #24]
 567:Src/tim.c     ****   if (HAL_TIM_Base_Init(&htim16) != HAL_OK)
 1053              		.loc 1 567 3 is_stmt 1 view .LVU341
 1054              		.loc 1 567 7 is_stmt 0 view .LVU342
 1055 001a FFF7FEFF 		bl	HAL_TIM_Base_Init
 1056              	.LVL44:
 1057              		.loc 1 567 6 view .LVU343
 1058 001e 00B9     		cbnz	r0, .L78
 1059              	.L75:
 568:Src/tim.c     ****   {
 569:Src/tim.c     ****     Error_Handler();
 570:Src/tim.c     ****   }
 571:Src/tim.c     ****   /* USER CODE BEGIN TIM16_Init 2 */
 572:Src/tim.c     **** 
 573:Src/tim.c     ****   /* USER CODE END TIM16_Init 2 */
 574:Src/tim.c     **** 
 575:Src/tim.c     **** }
 1060              		.loc 1 575 1 view .LVU344
 1061 0020 08BD     		pop	{r3, pc}
 1062              	.L78:
 569:Src/tim.c     ****   }
 1063              		.loc 1 569 5 is_stmt 1 view .LVU345
 1064 0022 FFF7FEFF 		bl	Error_Handler
 1065              	.LVL45:
 1066              		.loc 1 575 1 is_stmt 0 view .LVU346
 1067 0026 FBE7     		b	.L75
 1068              	.L80:
 1069              		.align	2
 1070              	.L79:
 1071 0028 00000000 		.word	.LANCHOR8
 1072 002c 00440140 		.word	1073824768
 1073              		.cfi_endproc
ARM GAS  C:\Users\simon\AppData\Local\Temp\cc9kiOsk.s 			page 30


 1074              	.LFE342:
 1076              		.section	.text.MX_TIM17_Init,"ax",%progbits
 1077              		.align	1
 1078              		.global	MX_TIM17_Init
 1079              		.syntax unified
 1080              		.thumb
 1081              		.thumb_func
 1083              	MX_TIM17_Init:
 1084              	.LFB343:
 576:Src/tim.c     **** /* TIM17 init function */
 577:Src/tim.c     **** void MX_TIM17_Init(void)
 578:Src/tim.c     **** {
 1085              		.loc 1 578 1 is_stmt 1 view -0
 1086              		.cfi_startproc
 1087              		@ args = 0, pretend = 0, frame = 0
 1088              		@ frame_needed = 0, uses_anonymous_args = 0
 1089 0000 08B5     		push	{r3, lr}
 1090              	.LCFI30:
 1091              		.cfi_def_cfa_offset 8
 1092              		.cfi_offset 3, -8
 1093              		.cfi_offset 14, -4
 579:Src/tim.c     **** 
 580:Src/tim.c     ****   /* USER CODE BEGIN TIM17_Init 0 */
 581:Src/tim.c     **** 
 582:Src/tim.c     ****   /* USER CODE END TIM17_Init 0 */
 583:Src/tim.c     **** 
 584:Src/tim.c     ****   /* USER CODE BEGIN TIM17_Init 1 */
 585:Src/tim.c     **** 
 586:Src/tim.c     ****   /* USER CODE END TIM17_Init 1 */
 587:Src/tim.c     ****   htim17.Instance = TIM17;
 1094              		.loc 1 587 3 view .LVU348
 1095              		.loc 1 587 19 is_stmt 0 view .LVU349
 1096 0002 0948     		ldr	r0, .L85
 1097 0004 094B     		ldr	r3, .L85+4
 1098 0006 0360     		str	r3, [r0]
 588:Src/tim.c     ****   htim17.Init.Prescaler = 0;
 1099              		.loc 1 588 3 is_stmt 1 view .LVU350
 1100              		.loc 1 588 25 is_stmt 0 view .LVU351
 1101 0008 0023     		movs	r3, #0
 1102 000a 4360     		str	r3, [r0, #4]
 589:Src/tim.c     ****   htim17.Init.CounterMode = TIM_COUNTERMODE_UP;
 1103              		.loc 1 589 3 is_stmt 1 view .LVU352
 1104              		.loc 1 589 27 is_stmt 0 view .LVU353
 1105 000c 8360     		str	r3, [r0, #8]
 590:Src/tim.c     ****   htim17.Init.Period = 65535;
 1106              		.loc 1 590 3 is_stmt 1 view .LVU354
 1107              		.loc 1 590 22 is_stmt 0 view .LVU355
 1108 000e 4FF6FF72 		movw	r2, #65535
 1109 0012 C260     		str	r2, [r0, #12]
 591:Src/tim.c     ****   htim17.Init.ClockDivision = TIM_CLOCKDIVISION_DIV1;
 1110              		.loc 1 591 3 is_stmt 1 view .LVU356
 1111              		.loc 1 591 29 is_stmt 0 view .LVU357
 1112 0014 0361     		str	r3, [r0, #16]
 592:Src/tim.c     ****   htim17.Init.RepetitionCounter = 0;
 1113              		.loc 1 592 3 is_stmt 1 view .LVU358
 1114              		.loc 1 592 33 is_stmt 0 view .LVU359
 1115 0016 4361     		str	r3, [r0, #20]
ARM GAS  C:\Users\simon\AppData\Local\Temp\cc9kiOsk.s 			page 31


 593:Src/tim.c     ****   htim17.Init.AutoReloadPreload = TIM_AUTORELOAD_PRELOAD_DISABLE;
 1116              		.loc 1 593 3 is_stmt 1 view .LVU360
 1117              		.loc 1 593 33 is_stmt 0 view .LVU361
 1118 0018 8361     		str	r3, [r0, #24]
 594:Src/tim.c     ****   if (HAL_TIM_Base_Init(&htim17) != HAL_OK)
 1119              		.loc 1 594 3 is_stmt 1 view .LVU362
 1120              		.loc 1 594 7 is_stmt 0 view .LVU363
 1121 001a FFF7FEFF 		bl	HAL_TIM_Base_Init
 1122              	.LVL46:
 1123              		.loc 1 594 6 view .LVU364
 1124 001e 00B9     		cbnz	r0, .L84
 1125              	.L81:
 595:Src/tim.c     ****   {
 596:Src/tim.c     ****     Error_Handler();
 597:Src/tim.c     ****   }
 598:Src/tim.c     ****   /* USER CODE BEGIN TIM17_Init 2 */
 599:Src/tim.c     **** 
 600:Src/tim.c     ****   /* USER CODE END TIM17_Init 2 */
 601:Src/tim.c     **** 
 602:Src/tim.c     **** }
 1126              		.loc 1 602 1 view .LVU365
 1127 0020 08BD     		pop	{r3, pc}
 1128              	.L84:
 596:Src/tim.c     ****   }
 1129              		.loc 1 596 5 is_stmt 1 view .LVU366
 1130 0022 FFF7FEFF 		bl	Error_Handler
 1131              	.LVL47:
 1132              		.loc 1 602 1 is_stmt 0 view .LVU367
 1133 0026 FBE7     		b	.L81
 1134              	.L86:
 1135              		.align	2
 1136              	.L85:
 1137 0028 00000000 		.word	.LANCHOR9
 1138 002c 00480140 		.word	1073825792
 1139              		.cfi_endproc
 1140              	.LFE343:
 1142              		.section	.text.HAL_TIM_Base_MspInit,"ax",%progbits
 1143              		.align	1
 1144              		.global	HAL_TIM_Base_MspInit
 1145              		.syntax unified
 1146              		.thumb
 1147              		.thumb_func
 1149              	HAL_TIM_Base_MspInit:
 1150              	.LVL48:
 1151              	.LFB344:
 603:Src/tim.c     **** 
 604:Src/tim.c     **** void HAL_TIM_Base_MspInit(TIM_HandleTypeDef* tim_baseHandle)
 605:Src/tim.c     **** {
 1152              		.loc 1 605 1 is_stmt 1 view -0
 1153              		.cfi_startproc
 1154              		@ args = 0, pretend = 0, frame = 32
 1155              		@ frame_needed = 0, uses_anonymous_args = 0
 1156              		.loc 1 605 1 is_stmt 0 view .LVU369
 1157 0000 00B5     		push	{lr}
 1158              	.LCFI31:
 1159              		.cfi_def_cfa_offset 4
 1160              		.cfi_offset 14, -4
ARM GAS  C:\Users\simon\AppData\Local\Temp\cc9kiOsk.s 			page 32


 1161 0002 89B0     		sub	sp, sp, #36
 1162              	.LCFI32:
 1163              		.cfi_def_cfa_offset 40
 606:Src/tim.c     **** 
 607:Src/tim.c     ****   if(tim_baseHandle->Instance==TIM1)
 1164              		.loc 1 607 3 is_stmt 1 view .LVU370
 1165              		.loc 1 607 20 is_stmt 0 view .LVU371
 1166 0004 0368     		ldr	r3, [r0]
 1167              		.loc 1 607 5 view .LVU372
 1168 0006 494A     		ldr	r2, .L104
 1169 0008 9342     		cmp	r3, r2
 1170 000a 22D0     		beq	.L97
 608:Src/tim.c     ****   {
 609:Src/tim.c     ****   /* USER CODE BEGIN TIM1_MspInit 0 */
 610:Src/tim.c     **** 
 611:Src/tim.c     ****   /* USER CODE END TIM1_MspInit 0 */
 612:Src/tim.c     ****     /* TIM1 clock enable */
 613:Src/tim.c     ****     __HAL_RCC_TIM1_CLK_ENABLE();
 614:Src/tim.c     **** 
 615:Src/tim.c     ****     /* TIM1 interrupt Init */
 616:Src/tim.c     ****     HAL_NVIC_SetPriority(TIM1_UP_IRQn, 0, 0);
 617:Src/tim.c     ****     HAL_NVIC_EnableIRQ(TIM1_UP_IRQn);
 618:Src/tim.c     ****   /* USER CODE BEGIN TIM1_MspInit 1 */
 619:Src/tim.c     **** 
 620:Src/tim.c     ****   /* USER CODE END TIM1_MspInit 1 */
 621:Src/tim.c     ****   }
 622:Src/tim.c     ****   else if(tim_baseHandle->Instance==TIM6)
 1171              		.loc 1 622 8 is_stmt 1 view .LVU373
 1172              		.loc 1 622 10 is_stmt 0 view .LVU374
 1173 000c 484A     		ldr	r2, .L104+4
 1174 000e 9342     		cmp	r3, r2
 1175 0010 35D0     		beq	.L98
 623:Src/tim.c     ****   {
 624:Src/tim.c     ****   /* USER CODE BEGIN TIM6_MspInit 0 */
 625:Src/tim.c     **** 
 626:Src/tim.c     ****   /* USER CODE END TIM6_MspInit 0 */
 627:Src/tim.c     ****     /* TIM6 clock enable */
 628:Src/tim.c     ****     __HAL_RCC_TIM6_CLK_ENABLE();
 629:Src/tim.c     ****   /* USER CODE BEGIN TIM6_MspInit 1 */
 630:Src/tim.c     **** 
 631:Src/tim.c     ****   /* USER CODE END TIM6_MspInit 1 */
 632:Src/tim.c     ****   }
 633:Src/tim.c     ****   else if(tim_baseHandle->Instance==TIM7)
 1176              		.loc 1 633 8 is_stmt 1 view .LVU375
 1177              		.loc 1 633 10 is_stmt 0 view .LVU376
 1178 0012 484A     		ldr	r2, .L104+8
 1179 0014 9342     		cmp	r3, r2
 1180 0016 42D0     		beq	.L99
 634:Src/tim.c     ****   {
 635:Src/tim.c     ****   /* USER CODE BEGIN TIM7_MspInit 0 */
 636:Src/tim.c     **** 
 637:Src/tim.c     ****   /* USER CODE END TIM7_MspInit 0 */
 638:Src/tim.c     ****     /* TIM7 clock enable */
 639:Src/tim.c     ****     __HAL_RCC_TIM7_CLK_ENABLE();
 640:Src/tim.c     ****   /* USER CODE BEGIN TIM7_MspInit 1 */
 641:Src/tim.c     **** 
 642:Src/tim.c     ****   /* USER CODE END TIM7_MspInit 1 */
ARM GAS  C:\Users\simon\AppData\Local\Temp\cc9kiOsk.s 			page 33


 643:Src/tim.c     ****   }
 644:Src/tim.c     ****   else if(tim_baseHandle->Instance==TIM8)
 1181              		.loc 1 644 8 is_stmt 1 view .LVU377
 1182              		.loc 1 644 10 is_stmt 0 view .LVU378
 1183 0018 474A     		ldr	r2, .L104+12
 1184 001a 9342     		cmp	r3, r2
 1185 001c 4DD0     		beq	.L100
 645:Src/tim.c     ****   {
 646:Src/tim.c     ****   /* USER CODE BEGIN TIM8_MspInit 0 */
 647:Src/tim.c     **** 
 648:Src/tim.c     ****   /* USER CODE END TIM8_MspInit 0 */
 649:Src/tim.c     ****     /* TIM8 clock enable */
 650:Src/tim.c     ****     __HAL_RCC_TIM8_CLK_ENABLE();
 651:Src/tim.c     ****   /* USER CODE BEGIN TIM8_MspInit 1 */
 652:Src/tim.c     **** 
 653:Src/tim.c     ****   /* USER CODE END TIM8_MspInit 1 */
 654:Src/tim.c     ****   }
 655:Src/tim.c     ****   else if(tim_baseHandle->Instance==TIM13)
 1186              		.loc 1 655 8 is_stmt 1 view .LVU379
 1187              		.loc 1 655 10 is_stmt 0 view .LVU380
 1188 001e 474A     		ldr	r2, .L104+16
 1189 0020 9342     		cmp	r3, r2
 1190 0022 58D0     		beq	.L101
 656:Src/tim.c     ****   {
 657:Src/tim.c     ****   /* USER CODE BEGIN TIM13_MspInit 0 */
 658:Src/tim.c     **** 
 659:Src/tim.c     ****   /* USER CODE END TIM13_MspInit 0 */
 660:Src/tim.c     ****     /* TIM13 clock enable */
 661:Src/tim.c     ****     __HAL_RCC_TIM13_CLK_ENABLE();
 662:Src/tim.c     ****   /* USER CODE BEGIN TIM13_MspInit 1 */
 663:Src/tim.c     **** 
 664:Src/tim.c     ****   /* USER CODE END TIM13_MspInit 1 */
 665:Src/tim.c     ****   }
 666:Src/tim.c     ****   else if(tim_baseHandle->Instance==TIM14)
 1191              		.loc 1 666 8 is_stmt 1 view .LVU381
 1192              		.loc 1 666 10 is_stmt 0 view .LVU382
 1193 0024 464A     		ldr	r2, .L104+20
 1194 0026 9342     		cmp	r3, r2
 1195 0028 63D0     		beq	.L102
 667:Src/tim.c     ****   {
 668:Src/tim.c     ****   /* USER CODE BEGIN TIM14_MspInit 0 */
 669:Src/tim.c     **** 
 670:Src/tim.c     ****   /* USER CODE END TIM14_MspInit 0 */
 671:Src/tim.c     ****     /* TIM14 clock enable */
 672:Src/tim.c     ****     __HAL_RCC_TIM14_CLK_ENABLE();
 673:Src/tim.c     ****   /* USER CODE BEGIN TIM14_MspInit 1 */
 674:Src/tim.c     **** 
 675:Src/tim.c     ****   /* USER CODE END TIM14_MspInit 1 */
 676:Src/tim.c     ****   }
 677:Src/tim.c     ****   else if(tim_baseHandle->Instance==TIM16)
 1196              		.loc 1 677 8 is_stmt 1 view .LVU383
 1197              		.loc 1 677 10 is_stmt 0 view .LVU384
 1198 002a 464A     		ldr	r2, .L104+24
 1199 002c 9342     		cmp	r3, r2
 1200 002e 6ED0     		beq	.L103
 678:Src/tim.c     ****   {
 679:Src/tim.c     ****   /* USER CODE BEGIN TIM16_MspInit 0 */
ARM GAS  C:\Users\simon\AppData\Local\Temp\cc9kiOsk.s 			page 34


 680:Src/tim.c     **** 
 681:Src/tim.c     ****   /* USER CODE END TIM16_MspInit 0 */
 682:Src/tim.c     ****     /* TIM16 clock enable */
 683:Src/tim.c     ****     __HAL_RCC_TIM16_CLK_ENABLE();
 684:Src/tim.c     ****   /* USER CODE BEGIN TIM16_MspInit 1 */
 685:Src/tim.c     **** 
 686:Src/tim.c     ****   /* USER CODE END TIM16_MspInit 1 */
 687:Src/tim.c     ****   }
 688:Src/tim.c     ****   else if(tim_baseHandle->Instance==TIM17)
 1201              		.loc 1 688 8 is_stmt 1 view .LVU385
 1202              		.loc 1 688 10 is_stmt 0 view .LVU386
 1203 0030 454A     		ldr	r2, .L104+28
 1204 0032 9342     		cmp	r3, r2
 1205 0034 30D1     		bne	.L87
 689:Src/tim.c     ****   {
 690:Src/tim.c     ****   /* USER CODE BEGIN TIM17_MspInit 0 */
 691:Src/tim.c     **** 
 692:Src/tim.c     ****   /* USER CODE END TIM17_MspInit 0 */
 693:Src/tim.c     ****     /* TIM17 clock enable */
 694:Src/tim.c     ****     __HAL_RCC_TIM17_CLK_ENABLE();
 1206              		.loc 1 694 5 is_stmt 1 view .LVU387
 1207              	.LBB2:
 1208              		.loc 1 694 5 view .LVU388
 1209              		.loc 1 694 5 view .LVU389
 1210 0036 454B     		ldr	r3, .L104+32
 1211 0038 D3F8F020 		ldr	r2, [r3, #240]
 1212 003c 42F48022 		orr	r2, r2, #262144
 1213 0040 C3F8F020 		str	r2, [r3, #240]
 1214              		.loc 1 694 5 view .LVU390
 1215 0044 D3F8F030 		ldr	r3, [r3, #240]
 1216 0048 03F48023 		and	r3, r3, #262144
 1217 004c 0793     		str	r3, [sp, #28]
 1218              		.loc 1 694 5 view .LVU391
 1219 004e 079B     		ldr	r3, [sp, #28]
 1220              	.LBE2:
 1221              		.loc 1 694 5 view .LVU392
 695:Src/tim.c     ****   /* USER CODE BEGIN TIM17_MspInit 1 */
 696:Src/tim.c     **** 
 697:Src/tim.c     ****   /* USER CODE END TIM17_MspInit 1 */
 698:Src/tim.c     ****   }
 699:Src/tim.c     **** }
 1222              		.loc 1 699 1 is_stmt 0 view .LVU393
 1223 0050 22E0     		b	.L87
 1224              	.L97:
 613:Src/tim.c     **** 
 1225              		.loc 1 613 5 is_stmt 1 view .LVU394
 1226              	.LBB3:
 613:Src/tim.c     **** 
 1227              		.loc 1 613 5 view .LVU395
 613:Src/tim.c     **** 
 1228              		.loc 1 613 5 view .LVU396
 1229 0052 3E4B     		ldr	r3, .L104+32
 1230 0054 D3F8F020 		ldr	r2, [r3, #240]
 1231 0058 42F00102 		orr	r2, r2, #1
 1232 005c C3F8F020 		str	r2, [r3, #240]
 613:Src/tim.c     **** 
 1233              		.loc 1 613 5 view .LVU397
ARM GAS  C:\Users\simon\AppData\Local\Temp\cc9kiOsk.s 			page 35


 1234 0060 D3F8F030 		ldr	r3, [r3, #240]
 1235 0064 03F00103 		and	r3, r3, #1
 1236 0068 0093     		str	r3, [sp]
 613:Src/tim.c     **** 
 1237              		.loc 1 613 5 view .LVU398
 1238 006a 009B     		ldr	r3, [sp]
 1239              	.LBE3:
 613:Src/tim.c     **** 
 1240              		.loc 1 613 5 view .LVU399
 616:Src/tim.c     ****     HAL_NVIC_EnableIRQ(TIM1_UP_IRQn);
 1241              		.loc 1 616 5 view .LVU400
 1242 006c 0022     		movs	r2, #0
 1243 006e 1146     		mov	r1, r2
 1244 0070 1920     		movs	r0, #25
 1245              	.LVL49:
 616:Src/tim.c     ****     HAL_NVIC_EnableIRQ(TIM1_UP_IRQn);
 1246              		.loc 1 616 5 is_stmt 0 view .LVU401
 1247 0072 FFF7FEFF 		bl	HAL_NVIC_SetPriority
 1248              	.LVL50:
 617:Src/tim.c     ****   /* USER CODE BEGIN TIM1_MspInit 1 */
 1249              		.loc 1 617 5 is_stmt 1 view .LVU402
 1250 0076 1920     		movs	r0, #25
 1251 0078 FFF7FEFF 		bl	HAL_NVIC_EnableIRQ
 1252              	.LVL51:
 1253 007c 0CE0     		b	.L87
 1254              	.LVL52:
 1255              	.L98:
 628:Src/tim.c     ****   /* USER CODE BEGIN TIM6_MspInit 1 */
 1256              		.loc 1 628 5 view .LVU403
 1257              	.LBB4:
 628:Src/tim.c     ****   /* USER CODE BEGIN TIM6_MspInit 1 */
 1258              		.loc 1 628 5 view .LVU404
 628:Src/tim.c     ****   /* USER CODE BEGIN TIM6_MspInit 1 */
 1259              		.loc 1 628 5 view .LVU405
 1260 007e 334B     		ldr	r3, .L104+32
 1261 0080 D3F8E820 		ldr	r2, [r3, #232]
 1262 0084 42F01002 		orr	r2, r2, #16
 1263 0088 C3F8E820 		str	r2, [r3, #232]
 628:Src/tim.c     ****   /* USER CODE BEGIN TIM6_MspInit 1 */
 1264              		.loc 1 628 5 view .LVU406
 1265 008c D3F8E830 		ldr	r3, [r3, #232]
 1266 0090 03F01003 		and	r3, r3, #16
 1267 0094 0193     		str	r3, [sp, #4]
 628:Src/tim.c     ****   /* USER CODE BEGIN TIM6_MspInit 1 */
 1268              		.loc 1 628 5 view .LVU407
 1269 0096 019B     		ldr	r3, [sp, #4]
 1270              	.LBE4:
 628:Src/tim.c     ****   /* USER CODE BEGIN TIM6_MspInit 1 */
 1271              		.loc 1 628 5 view .LVU408
 1272              	.LVL53:
 1273              	.L87:
 1274              		.loc 1 699 1 is_stmt 0 view .LVU409
 1275 0098 09B0     		add	sp, sp, #36
 1276              	.LCFI33:
 1277              		.cfi_remember_state
 1278              		.cfi_def_cfa_offset 4
 1279              		@ sp needed
ARM GAS  C:\Users\simon\AppData\Local\Temp\cc9kiOsk.s 			page 36


 1280 009a 5DF804FB 		ldr	pc, [sp], #4
 1281              	.LVL54:
 1282              	.L99:
 1283              	.LCFI34:
 1284              		.cfi_restore_state
 639:Src/tim.c     ****   /* USER CODE BEGIN TIM7_MspInit 1 */
 1285              		.loc 1 639 5 is_stmt 1 view .LVU410
 1286              	.LBB5:
 639:Src/tim.c     ****   /* USER CODE BEGIN TIM7_MspInit 1 */
 1287              		.loc 1 639 5 view .LVU411
 639:Src/tim.c     ****   /* USER CODE BEGIN TIM7_MspInit 1 */
 1288              		.loc 1 639 5 view .LVU412
 1289 009e 2B4B     		ldr	r3, .L104+32
 1290 00a0 D3F8E820 		ldr	r2, [r3, #232]
 1291 00a4 42F02002 		orr	r2, r2, #32
 1292 00a8 C3F8E820 		str	r2, [r3, #232]
 639:Src/tim.c     ****   /* USER CODE BEGIN TIM7_MspInit 1 */
 1293              		.loc 1 639 5 view .LVU413
 1294 00ac D3F8E830 		ldr	r3, [r3, #232]
 1295 00b0 03F02003 		and	r3, r3, #32
 1296 00b4 0293     		str	r3, [sp, #8]
 639:Src/tim.c     ****   /* USER CODE BEGIN TIM7_MspInit 1 */
 1297              		.loc 1 639 5 view .LVU414
 1298 00b6 029B     		ldr	r3, [sp, #8]
 1299              	.LBE5:
 639:Src/tim.c     ****   /* USER CODE BEGIN TIM7_MspInit 1 */
 1300              		.loc 1 639 5 view .LVU415
 1301 00b8 EEE7     		b	.L87
 1302              	.L100:
 650:Src/tim.c     ****   /* USER CODE BEGIN TIM8_MspInit 1 */
 1303              		.loc 1 650 5 view .LVU416
 1304              	.LBB6:
 650:Src/tim.c     ****   /* USER CODE BEGIN TIM8_MspInit 1 */
 1305              		.loc 1 650 5 view .LVU417
 650:Src/tim.c     ****   /* USER CODE BEGIN TIM8_MspInit 1 */
 1306              		.loc 1 650 5 view .LVU418
 1307 00ba 244B     		ldr	r3, .L104+32
 1308 00bc D3F8F020 		ldr	r2, [r3, #240]
 1309 00c0 42F00202 		orr	r2, r2, #2
 1310 00c4 C3F8F020 		str	r2, [r3, #240]
 650:Src/tim.c     ****   /* USER CODE BEGIN TIM8_MspInit 1 */
 1311              		.loc 1 650 5 view .LVU419
 1312 00c8 D3F8F030 		ldr	r3, [r3, #240]
 1313 00cc 03F00203 		and	r3, r3, #2
 1314 00d0 0393     		str	r3, [sp, #12]
 650:Src/tim.c     ****   /* USER CODE BEGIN TIM8_MspInit 1 */
 1315              		.loc 1 650 5 view .LVU420
 1316 00d2 039B     		ldr	r3, [sp, #12]
 1317              	.LBE6:
 650:Src/tim.c     ****   /* USER CODE BEGIN TIM8_MspInit 1 */
 1318              		.loc 1 650 5 view .LVU421
 1319 00d4 E0E7     		b	.L87
 1320              	.L101:
 661:Src/tim.c     ****   /* USER CODE BEGIN TIM13_MspInit 1 */
 1321              		.loc 1 661 5 view .LVU422
 1322              	.LBB7:
 661:Src/tim.c     ****   /* USER CODE BEGIN TIM13_MspInit 1 */
ARM GAS  C:\Users\simon\AppData\Local\Temp\cc9kiOsk.s 			page 37


 1323              		.loc 1 661 5 view .LVU423
 661:Src/tim.c     ****   /* USER CODE BEGIN TIM13_MspInit 1 */
 1324              		.loc 1 661 5 view .LVU424
 1325 00d6 1D4B     		ldr	r3, .L104+32
 1326 00d8 D3F8E820 		ldr	r2, [r3, #232]
 1327 00dc 42F08002 		orr	r2, r2, #128
 1328 00e0 C3F8E820 		str	r2, [r3, #232]
 661:Src/tim.c     ****   /* USER CODE BEGIN TIM13_MspInit 1 */
 1329              		.loc 1 661 5 view .LVU425
 1330 00e4 D3F8E830 		ldr	r3, [r3, #232]
 1331 00e8 03F08003 		and	r3, r3, #128
 1332 00ec 0493     		str	r3, [sp, #16]
 661:Src/tim.c     ****   /* USER CODE BEGIN TIM13_MspInit 1 */
 1333              		.loc 1 661 5 view .LVU426
 1334 00ee 049B     		ldr	r3, [sp, #16]
 1335              	.LBE7:
 661:Src/tim.c     ****   /* USER CODE BEGIN TIM13_MspInit 1 */
 1336              		.loc 1 661 5 view .LVU427
 1337 00f0 D2E7     		b	.L87
 1338              	.L102:
 672:Src/tim.c     ****   /* USER CODE BEGIN TIM14_MspInit 1 */
 1339              		.loc 1 672 5 view .LVU428
 1340              	.LBB8:
 672:Src/tim.c     ****   /* USER CODE BEGIN TIM14_MspInit 1 */
 1341              		.loc 1 672 5 view .LVU429
 672:Src/tim.c     ****   /* USER CODE BEGIN TIM14_MspInit 1 */
 1342              		.loc 1 672 5 view .LVU430
 1343 00f2 164B     		ldr	r3, .L104+32
 1344 00f4 D3F8E820 		ldr	r2, [r3, #232]
 1345 00f8 42F48072 		orr	r2, r2, #256
 1346 00fc C3F8E820 		str	r2, [r3, #232]
 672:Src/tim.c     ****   /* USER CODE BEGIN TIM14_MspInit 1 */
 1347              		.loc 1 672 5 view .LVU431
 1348 0100 D3F8E830 		ldr	r3, [r3, #232]
 1349 0104 03F48073 		and	r3, r3, #256
 1350 0108 0593     		str	r3, [sp, #20]
 672:Src/tim.c     ****   /* USER CODE BEGIN TIM14_MspInit 1 */
 1351              		.loc 1 672 5 view .LVU432
 1352 010a 059B     		ldr	r3, [sp, #20]
 1353              	.LBE8:
 672:Src/tim.c     ****   /* USER CODE BEGIN TIM14_MspInit 1 */
 1354              		.loc 1 672 5 view .LVU433
 1355 010c C4E7     		b	.L87
 1356              	.L103:
 683:Src/tim.c     ****   /* USER CODE BEGIN TIM16_MspInit 1 */
 1357              		.loc 1 683 5 view .LVU434
 1358              	.LBB9:
 683:Src/tim.c     ****   /* USER CODE BEGIN TIM16_MspInit 1 */
 1359              		.loc 1 683 5 view .LVU435
 683:Src/tim.c     ****   /* USER CODE BEGIN TIM16_MspInit 1 */
 1360              		.loc 1 683 5 view .LVU436
 1361 010e 0F4B     		ldr	r3, .L104+32
 1362 0110 D3F8F020 		ldr	r2, [r3, #240]
 1363 0114 42F40032 		orr	r2, r2, #131072
 1364 0118 C3F8F020 		str	r2, [r3, #240]
 683:Src/tim.c     ****   /* USER CODE BEGIN TIM16_MspInit 1 */
 1365              		.loc 1 683 5 view .LVU437
ARM GAS  C:\Users\simon\AppData\Local\Temp\cc9kiOsk.s 			page 38


 1366 011c D3F8F030 		ldr	r3, [r3, #240]
 1367 0120 03F40033 		and	r3, r3, #131072
 1368 0124 0693     		str	r3, [sp, #24]
 683:Src/tim.c     ****   /* USER CODE BEGIN TIM16_MspInit 1 */
 1369              		.loc 1 683 5 view .LVU438
 1370 0126 069B     		ldr	r3, [sp, #24]
 1371              	.LBE9:
 683:Src/tim.c     ****   /* USER CODE BEGIN TIM16_MspInit 1 */
 1372              		.loc 1 683 5 view .LVU439
 1373 0128 B6E7     		b	.L87
 1374              	.L105:
 1375 012a 00BF     		.align	2
 1376              	.L104:
 1377 012c 00000140 		.word	1073807360
 1378 0130 00100040 		.word	1073745920
 1379 0134 00140040 		.word	1073746944
 1380 0138 00040140 		.word	1073808384
 1381 013c 001C0040 		.word	1073748992
 1382 0140 00200040 		.word	1073750016
 1383 0144 00440140 		.word	1073824768
 1384 0148 00480140 		.word	1073825792
 1385 014c 00440258 		.word	1476543488
 1386              		.cfi_endproc
 1387              	.LFE344:
 1389              		.section	.text.HAL_TIM_IC_MspInit,"ax",%progbits
 1390              		.align	1
 1391              		.global	HAL_TIM_IC_MspInit
 1392              		.syntax unified
 1393              		.thumb
 1394              		.thumb_func
 1396              	HAL_TIM_IC_MspInit:
 1397              	.LVL55:
 1398              	.LFB345:
 700:Src/tim.c     **** 
 701:Src/tim.c     **** void HAL_TIM_IC_MspInit(TIM_HandleTypeDef* tim_icHandle)
 702:Src/tim.c     **** {
 1399              		.loc 1 702 1 view -0
 1400              		.cfi_startproc
 1401              		@ args = 0, pretend = 0, frame = 56
 1402              		@ frame_needed = 0, uses_anonymous_args = 0
 1403              		.loc 1 702 1 is_stmt 0 view .LVU441
 1404 0000 10B5     		push	{r4, lr}
 1405              	.LCFI35:
 1406              		.cfi_def_cfa_offset 8
 1407              		.cfi_offset 4, -8
 1408              		.cfi_offset 14, -4
 1409 0002 8EB0     		sub	sp, sp, #56
 1410              	.LCFI36:
 1411              		.cfi_def_cfa_offset 64
 703:Src/tim.c     **** 
 704:Src/tim.c     ****   GPIO_InitTypeDef GPIO_InitStruct = {0};
 1412              		.loc 1 704 3 is_stmt 1 view .LVU442
 1413              		.loc 1 704 20 is_stmt 0 view .LVU443
 1414 0004 0023     		movs	r3, #0
 1415 0006 0993     		str	r3, [sp, #36]
 1416 0008 0A93     		str	r3, [sp, #40]
 1417 000a 0B93     		str	r3, [sp, #44]
ARM GAS  C:\Users\simon\AppData\Local\Temp\cc9kiOsk.s 			page 39


 1418 000c 0C93     		str	r3, [sp, #48]
 1419 000e 0D93     		str	r3, [sp, #52]
 705:Src/tim.c     ****   if(tim_icHandle->Instance==TIM2)
 1420              		.loc 1 705 3 is_stmt 1 view .LVU444
 1421              		.loc 1 705 18 is_stmt 0 view .LVU445
 1422 0010 0368     		ldr	r3, [r0]
 1423              		.loc 1 705 5 view .LVU446
 1424 0012 B3F1804F 		cmp	r3, #1073741824
 1425 0016 0BD0     		beq	.L112
 706:Src/tim.c     ****   {
 707:Src/tim.c     ****   /* USER CODE BEGIN TIM2_MspInit 0 */
 708:Src/tim.c     **** 
 709:Src/tim.c     ****   /* USER CODE END TIM2_MspInit 0 */
 710:Src/tim.c     ****     /* TIM2 clock enable */
 711:Src/tim.c     ****     __HAL_RCC_TIM2_CLK_ENABLE();
 712:Src/tim.c     **** 
 713:Src/tim.c     ****     __HAL_RCC_GPIOA_CLK_ENABLE();
 714:Src/tim.c     ****     /**TIM2 GPIO Configuration
 715:Src/tim.c     ****     PA2     ------> TIM2_CH3
 716:Src/tim.c     ****     PA0     ------> TIM2_CH1
 717:Src/tim.c     ****     */
 718:Src/tim.c     ****     GPIO_InitStruct.Pin = GPIO_PIN_2|GPIO_PIN_0;
 719:Src/tim.c     ****     GPIO_InitStruct.Mode = GPIO_MODE_AF_PP;
 720:Src/tim.c     ****     GPIO_InitStruct.Pull = GPIO_NOPULL;
 721:Src/tim.c     ****     GPIO_InitStruct.Speed = GPIO_SPEED_FREQ_LOW;
 722:Src/tim.c     ****     GPIO_InitStruct.Alternate = GPIO_AF1_TIM2;
 723:Src/tim.c     ****     HAL_GPIO_Init(GPIOA, &GPIO_InitStruct);
 724:Src/tim.c     **** 
 725:Src/tim.c     ****   /* USER CODE BEGIN TIM2_MspInit 1 */
 726:Src/tim.c     **** 
 727:Src/tim.c     ****   /* USER CODE END TIM2_MspInit 1 */
 728:Src/tim.c     ****   }
 729:Src/tim.c     ****   else if(tim_icHandle->Instance==TIM4)
 1426              		.loc 1 729 8 is_stmt 1 view .LVU447
 1427              		.loc 1 729 10 is_stmt 0 view .LVU448
 1428 0018 594A     		ldr	r2, .L116
 1429 001a 9342     		cmp	r3, r2
 1430 001c 2CD0     		beq	.L113
 730:Src/tim.c     ****   {
 731:Src/tim.c     ****   /* USER CODE BEGIN TIM4_MspInit 0 */
 732:Src/tim.c     **** 
 733:Src/tim.c     ****   /* USER CODE END TIM4_MspInit 0 */
 734:Src/tim.c     ****     /* TIM4 clock enable */
 735:Src/tim.c     ****     __HAL_RCC_TIM4_CLK_ENABLE();
 736:Src/tim.c     **** 
 737:Src/tim.c     ****     __HAL_RCC_GPIOB_CLK_ENABLE();
 738:Src/tim.c     ****     __HAL_RCC_GPIOD_CLK_ENABLE();
 739:Src/tim.c     ****     /**TIM4 GPIO Configuration
 740:Src/tim.c     ****     PB6     ------> TIM4_CH1
 741:Src/tim.c     ****     PB8     ------> TIM4_CH3
 742:Src/tim.c     ****     PD13     ------> TIM4_CH2
 743:Src/tim.c     ****     */
 744:Src/tim.c     ****     GPIO_InitStruct.Pin = GPIO_PIN_6|GPIO_PIN_8;
 745:Src/tim.c     ****     GPIO_InitStruct.Mode = GPIO_MODE_AF_PP;
 746:Src/tim.c     ****     GPIO_InitStruct.Pull = GPIO_NOPULL;
 747:Src/tim.c     ****     GPIO_InitStruct.Speed = GPIO_SPEED_FREQ_LOW;
 748:Src/tim.c     ****     GPIO_InitStruct.Alternate = GPIO_AF2_TIM4;
ARM GAS  C:\Users\simon\AppData\Local\Temp\cc9kiOsk.s 			page 40


 749:Src/tim.c     ****     HAL_GPIO_Init(GPIOB, &GPIO_InitStruct);
 750:Src/tim.c     **** 
 751:Src/tim.c     ****     GPIO_InitStruct.Pin = GPIO_PIN_13;
 752:Src/tim.c     ****     GPIO_InitStruct.Mode = GPIO_MODE_AF_PP;
 753:Src/tim.c     ****     GPIO_InitStruct.Pull = GPIO_NOPULL;
 754:Src/tim.c     ****     GPIO_InitStruct.Speed = GPIO_SPEED_FREQ_LOW;
 755:Src/tim.c     ****     GPIO_InitStruct.Alternate = GPIO_AF2_TIM4;
 756:Src/tim.c     ****     HAL_GPIO_Init(GPIOD, &GPIO_InitStruct);
 757:Src/tim.c     **** 
 758:Src/tim.c     ****   /* USER CODE BEGIN TIM4_MspInit 1 */
 759:Src/tim.c     **** 
 760:Src/tim.c     ****   /* USER CODE END TIM4_MspInit 1 */
 761:Src/tim.c     ****   }
 762:Src/tim.c     ****   else if(tim_icHandle->Instance==TIM12)
 1431              		.loc 1 762 8 is_stmt 1 view .LVU449
 1432              		.loc 1 762 10 is_stmt 0 view .LVU450
 1433 001e 594A     		ldr	r2, .L116+4
 1434 0020 9342     		cmp	r3, r2
 1435 0022 65D0     		beq	.L114
 763:Src/tim.c     ****   {
 764:Src/tim.c     ****   /* USER CODE BEGIN TIM12_MspInit 0 */
 765:Src/tim.c     **** 
 766:Src/tim.c     ****   /* USER CODE END TIM12_MspInit 0 */
 767:Src/tim.c     ****     /* TIM12 clock enable */
 768:Src/tim.c     ****     __HAL_RCC_TIM12_CLK_ENABLE();
 769:Src/tim.c     **** 
 770:Src/tim.c     ****     __HAL_RCC_GPIOH_CLK_ENABLE();
 771:Src/tim.c     ****     /**TIM12 GPIO Configuration
 772:Src/tim.c     ****     PH6     ------> TIM12_CH1
 773:Src/tim.c     ****     */
 774:Src/tim.c     ****     GPIO_InitStruct.Pin = GPIO_PIN_6;
 775:Src/tim.c     ****     GPIO_InitStruct.Mode = GPIO_MODE_AF_PP;
 776:Src/tim.c     ****     GPIO_InitStruct.Pull = GPIO_NOPULL;
 777:Src/tim.c     ****     GPIO_InitStruct.Speed = GPIO_SPEED_FREQ_LOW;
 778:Src/tim.c     ****     GPIO_InitStruct.Alternate = GPIO_AF2_TIM12;
 779:Src/tim.c     ****     HAL_GPIO_Init(GPIOH, &GPIO_InitStruct);
 780:Src/tim.c     **** 
 781:Src/tim.c     ****   /* USER CODE BEGIN TIM12_MspInit 1 */
 782:Src/tim.c     **** 
 783:Src/tim.c     ****   /* USER CODE END TIM12_MspInit 1 */
 784:Src/tim.c     ****   }
 785:Src/tim.c     ****   else if(tim_icHandle->Instance==TIM15)
 1436              		.loc 1 785 8 is_stmt 1 view .LVU451
 1437              		.loc 1 785 10 is_stmt 0 view .LVU452
 1438 0024 584A     		ldr	r2, .L116+8
 1439 0026 9342     		cmp	r3, r2
 1440 0028 00F08580 		beq	.L115
 1441              	.LVL56:
 1442              	.L106:
 786:Src/tim.c     ****   {
 787:Src/tim.c     ****   /* USER CODE BEGIN TIM15_MspInit 0 */
 788:Src/tim.c     **** 
 789:Src/tim.c     ****   /* USER CODE END TIM15_MspInit 0 */
 790:Src/tim.c     ****     /* TIM15 clock enable */
 791:Src/tim.c     ****     __HAL_RCC_TIM15_CLK_ENABLE();
 792:Src/tim.c     **** 
 793:Src/tim.c     ****     __HAL_RCC_GPIOE_CLK_ENABLE();
ARM GAS  C:\Users\simon\AppData\Local\Temp\cc9kiOsk.s 			page 41


 794:Src/tim.c     ****     /**TIM15 GPIO Configuration
 795:Src/tim.c     ****     PE6     ------> TIM15_CH2
 796:Src/tim.c     ****     */
 797:Src/tim.c     ****     GPIO_InitStruct.Pin = GPIO_PIN_6;
 798:Src/tim.c     ****     GPIO_InitStruct.Mode = GPIO_MODE_AF_PP;
 799:Src/tim.c     ****     GPIO_InitStruct.Pull = GPIO_NOPULL;
 800:Src/tim.c     ****     GPIO_InitStruct.Speed = GPIO_SPEED_FREQ_LOW;
 801:Src/tim.c     ****     GPIO_InitStruct.Alternate = GPIO_AF4_TIM15;
 802:Src/tim.c     ****     HAL_GPIO_Init(GPIOE, &GPIO_InitStruct);
 803:Src/tim.c     **** 
 804:Src/tim.c     ****   /* USER CODE BEGIN TIM15_MspInit 1 */
 805:Src/tim.c     **** 
 806:Src/tim.c     ****   /* USER CODE END TIM15_MspInit 1 */
 807:Src/tim.c     ****   }
 808:Src/tim.c     **** }
 1443              		.loc 1 808 1 view .LVU453
 1444 002c 0EB0     		add	sp, sp, #56
 1445              	.LCFI37:
 1446              		.cfi_remember_state
 1447              		.cfi_def_cfa_offset 8
 1448              		@ sp needed
 1449 002e 10BD     		pop	{r4, pc}
 1450              	.LVL57:
 1451              	.L112:
 1452              	.LCFI38:
 1453              		.cfi_restore_state
 711:Src/tim.c     **** 
 1454              		.loc 1 711 5 is_stmt 1 view .LVU454
 1455              	.LBB10:
 711:Src/tim.c     **** 
 1456              		.loc 1 711 5 view .LVU455
 711:Src/tim.c     **** 
 1457              		.loc 1 711 5 view .LVU456
 1458 0030 564B     		ldr	r3, .L116+12
 1459 0032 D3F8E820 		ldr	r2, [r3, #232]
 1460 0036 42F00102 		orr	r2, r2, #1
 1461 003a C3F8E820 		str	r2, [r3, #232]
 711:Src/tim.c     **** 
 1462              		.loc 1 711 5 view .LVU457
 1463 003e D3F8E820 		ldr	r2, [r3, #232]
 1464 0042 02F00102 		and	r2, r2, #1
 1465 0046 0092     		str	r2, [sp]
 711:Src/tim.c     **** 
 1466              		.loc 1 711 5 view .LVU458
 1467 0048 009A     		ldr	r2, [sp]
 1468              	.LBE10:
 711:Src/tim.c     **** 
 1469              		.loc 1 711 5 view .LVU459
 713:Src/tim.c     ****     /**TIM2 GPIO Configuration
 1470              		.loc 1 713 5 view .LVU460
 1471              	.LBB11:
 713:Src/tim.c     ****     /**TIM2 GPIO Configuration
 1472              		.loc 1 713 5 view .LVU461
 713:Src/tim.c     ****     /**TIM2 GPIO Configuration
 1473              		.loc 1 713 5 view .LVU462
 1474 004a D3F8E020 		ldr	r2, [r3, #224]
 1475 004e 42F00102 		orr	r2, r2, #1
ARM GAS  C:\Users\simon\AppData\Local\Temp\cc9kiOsk.s 			page 42


 1476 0052 C3F8E020 		str	r2, [r3, #224]
 713:Src/tim.c     ****     /**TIM2 GPIO Configuration
 1477              		.loc 1 713 5 view .LVU463
 1478 0056 D3F8E030 		ldr	r3, [r3, #224]
 1479 005a 03F00103 		and	r3, r3, #1
 1480 005e 0193     		str	r3, [sp, #4]
 713:Src/tim.c     ****     /**TIM2 GPIO Configuration
 1481              		.loc 1 713 5 view .LVU464
 1482 0060 019B     		ldr	r3, [sp, #4]
 1483              	.LBE11:
 713:Src/tim.c     ****     /**TIM2 GPIO Configuration
 1484              		.loc 1 713 5 view .LVU465
 718:Src/tim.c     ****     GPIO_InitStruct.Mode = GPIO_MODE_AF_PP;
 1485              		.loc 1 718 5 view .LVU466
 718:Src/tim.c     ****     GPIO_InitStruct.Mode = GPIO_MODE_AF_PP;
 1486              		.loc 1 718 25 is_stmt 0 view .LVU467
 1487 0062 0523     		movs	r3, #5
 1488 0064 0993     		str	r3, [sp, #36]
 719:Src/tim.c     ****     GPIO_InitStruct.Pull = GPIO_NOPULL;
 1489              		.loc 1 719 5 is_stmt 1 view .LVU468
 719:Src/tim.c     ****     GPIO_InitStruct.Pull = GPIO_NOPULL;
 1490              		.loc 1 719 26 is_stmt 0 view .LVU469
 1491 0066 0223     		movs	r3, #2
 1492 0068 0A93     		str	r3, [sp, #40]
 720:Src/tim.c     ****     GPIO_InitStruct.Speed = GPIO_SPEED_FREQ_LOW;
 1493              		.loc 1 720 5 is_stmt 1 view .LVU470
 721:Src/tim.c     ****     GPIO_InitStruct.Alternate = GPIO_AF1_TIM2;
 1494              		.loc 1 721 5 view .LVU471
 722:Src/tim.c     ****     HAL_GPIO_Init(GPIOA, &GPIO_InitStruct);
 1495              		.loc 1 722 5 view .LVU472
 722:Src/tim.c     ****     HAL_GPIO_Init(GPIOA, &GPIO_InitStruct);
 1496              		.loc 1 722 31 is_stmt 0 view .LVU473
 1497 006a 0123     		movs	r3, #1
 1498 006c 0D93     		str	r3, [sp, #52]
 723:Src/tim.c     **** 
 1499              		.loc 1 723 5 is_stmt 1 view .LVU474
 1500 006e 09A9     		add	r1, sp, #36
 1501 0070 4748     		ldr	r0, .L116+16
 1502              	.LVL58:
 723:Src/tim.c     **** 
 1503              		.loc 1 723 5 is_stmt 0 view .LVU475
 1504 0072 FFF7FEFF 		bl	HAL_GPIO_Init
 1505              	.LVL59:
 1506 0076 D9E7     		b	.L106
 1507              	.LVL60:
 1508              	.L113:
 735:Src/tim.c     **** 
 1509              		.loc 1 735 5 is_stmt 1 view .LVU476
 1510              	.LBB12:
 735:Src/tim.c     **** 
 1511              		.loc 1 735 5 view .LVU477
 735:Src/tim.c     **** 
 1512              		.loc 1 735 5 view .LVU478
 1513 0078 444B     		ldr	r3, .L116+12
 1514 007a D3F8E820 		ldr	r2, [r3, #232]
 1515 007e 42F00402 		orr	r2, r2, #4
 1516 0082 C3F8E820 		str	r2, [r3, #232]
ARM GAS  C:\Users\simon\AppData\Local\Temp\cc9kiOsk.s 			page 43


 735:Src/tim.c     **** 
 1517              		.loc 1 735 5 view .LVU479
 1518 0086 D3F8E820 		ldr	r2, [r3, #232]
 1519 008a 02F00402 		and	r2, r2, #4
 1520 008e 0292     		str	r2, [sp, #8]
 735:Src/tim.c     **** 
 1521              		.loc 1 735 5 view .LVU480
 1522 0090 029A     		ldr	r2, [sp, #8]
 1523              	.LBE12:
 735:Src/tim.c     **** 
 1524              		.loc 1 735 5 view .LVU481
 737:Src/tim.c     ****     __HAL_RCC_GPIOD_CLK_ENABLE();
 1525              		.loc 1 737 5 view .LVU482
 1526              	.LBB13:
 737:Src/tim.c     ****     __HAL_RCC_GPIOD_CLK_ENABLE();
 1527              		.loc 1 737 5 view .LVU483
 737:Src/tim.c     ****     __HAL_RCC_GPIOD_CLK_ENABLE();
 1528              		.loc 1 737 5 view .LVU484
 1529 0092 D3F8E020 		ldr	r2, [r3, #224]
 1530 0096 42F00202 		orr	r2, r2, #2
 1531 009a C3F8E020 		str	r2, [r3, #224]
 737:Src/tim.c     ****     __HAL_RCC_GPIOD_CLK_ENABLE();
 1532              		.loc 1 737 5 view .LVU485
 1533 009e D3F8E020 		ldr	r2, [r3, #224]
 1534 00a2 02F00202 		and	r2, r2, #2
 1535 00a6 0392     		str	r2, [sp, #12]
 737:Src/tim.c     ****     __HAL_RCC_GPIOD_CLK_ENABLE();
 1536              		.loc 1 737 5 view .LVU486
 1537 00a8 039A     		ldr	r2, [sp, #12]
 1538              	.LBE13:
 737:Src/tim.c     ****     __HAL_RCC_GPIOD_CLK_ENABLE();
 1539              		.loc 1 737 5 view .LVU487
 738:Src/tim.c     ****     /**TIM4 GPIO Configuration
 1540              		.loc 1 738 5 view .LVU488
 1541              	.LBB14:
 738:Src/tim.c     ****     /**TIM4 GPIO Configuration
 1542              		.loc 1 738 5 view .LVU489
 738:Src/tim.c     ****     /**TIM4 GPIO Configuration
 1543              		.loc 1 738 5 view .LVU490
 1544 00aa D3F8E020 		ldr	r2, [r3, #224]
 1545 00ae 42F00802 		orr	r2, r2, #8
 1546 00b2 C3F8E020 		str	r2, [r3, #224]
 738:Src/tim.c     ****     /**TIM4 GPIO Configuration
 1547              		.loc 1 738 5 view .LVU491
 1548 00b6 D3F8E030 		ldr	r3, [r3, #224]
 1549 00ba 03F00803 		and	r3, r3, #8
 1550 00be 0493     		str	r3, [sp, #16]
 738:Src/tim.c     ****     /**TIM4 GPIO Configuration
 1551              		.loc 1 738 5 view .LVU492
 1552 00c0 049B     		ldr	r3, [sp, #16]
 1553              	.LBE14:
 738:Src/tim.c     ****     /**TIM4 GPIO Configuration
 1554              		.loc 1 738 5 view .LVU493
 744:Src/tim.c     ****     GPIO_InitStruct.Mode = GPIO_MODE_AF_PP;
 1555              		.loc 1 744 5 view .LVU494
 744:Src/tim.c     ****     GPIO_InitStruct.Mode = GPIO_MODE_AF_PP;
 1556              		.loc 1 744 25 is_stmt 0 view .LVU495
ARM GAS  C:\Users\simon\AppData\Local\Temp\cc9kiOsk.s 			page 44


 1557 00c2 4FF4A073 		mov	r3, #320
 1558 00c6 0993     		str	r3, [sp, #36]
 745:Src/tim.c     ****     GPIO_InitStruct.Pull = GPIO_NOPULL;
 1559              		.loc 1 745 5 is_stmt 1 view .LVU496
 745:Src/tim.c     ****     GPIO_InitStruct.Pull = GPIO_NOPULL;
 1560              		.loc 1 745 26 is_stmt 0 view .LVU497
 1561 00c8 0224     		movs	r4, #2
 1562 00ca 0A94     		str	r4, [sp, #40]
 746:Src/tim.c     ****     GPIO_InitStruct.Speed = GPIO_SPEED_FREQ_LOW;
 1563              		.loc 1 746 5 is_stmt 1 view .LVU498
 747:Src/tim.c     ****     GPIO_InitStruct.Alternate = GPIO_AF2_TIM4;
 1564              		.loc 1 747 5 view .LVU499
 748:Src/tim.c     ****     HAL_GPIO_Init(GPIOB, &GPIO_InitStruct);
 1565              		.loc 1 748 5 view .LVU500
 748:Src/tim.c     ****     HAL_GPIO_Init(GPIOB, &GPIO_InitStruct);
 1566              		.loc 1 748 31 is_stmt 0 view .LVU501
 1567 00cc 0D94     		str	r4, [sp, #52]
 749:Src/tim.c     **** 
 1568              		.loc 1 749 5 is_stmt 1 view .LVU502
 1569 00ce 09A9     		add	r1, sp, #36
 1570 00d0 3048     		ldr	r0, .L116+20
 1571              	.LVL61:
 749:Src/tim.c     **** 
 1572              		.loc 1 749 5 is_stmt 0 view .LVU503
 1573 00d2 FFF7FEFF 		bl	HAL_GPIO_Init
 1574              	.LVL62:
 751:Src/tim.c     ****     GPIO_InitStruct.Mode = GPIO_MODE_AF_PP;
 1575              		.loc 1 751 5 is_stmt 1 view .LVU504
 751:Src/tim.c     ****     GPIO_InitStruct.Mode = GPIO_MODE_AF_PP;
 1576              		.loc 1 751 25 is_stmt 0 view .LVU505
 1577 00d6 4FF40053 		mov	r3, #8192
 1578 00da 0993     		str	r3, [sp, #36]
 752:Src/tim.c     ****     GPIO_InitStruct.Pull = GPIO_NOPULL;
 1579              		.loc 1 752 5 is_stmt 1 view .LVU506
 752:Src/tim.c     ****     GPIO_InitStruct.Pull = GPIO_NOPULL;
 1580              		.loc 1 752 26 is_stmt 0 view .LVU507
 1581 00dc 0A94     		str	r4, [sp, #40]
 753:Src/tim.c     ****     GPIO_InitStruct.Speed = GPIO_SPEED_FREQ_LOW;
 1582              		.loc 1 753 5 is_stmt 1 view .LVU508
 753:Src/tim.c     ****     GPIO_InitStruct.Speed = GPIO_SPEED_FREQ_LOW;
 1583              		.loc 1 753 26 is_stmt 0 view .LVU509
 1584 00de 0023     		movs	r3, #0
 1585 00e0 0B93     		str	r3, [sp, #44]
 754:Src/tim.c     ****     GPIO_InitStruct.Alternate = GPIO_AF2_TIM4;
 1586              		.loc 1 754 5 is_stmt 1 view .LVU510
 754:Src/tim.c     ****     GPIO_InitStruct.Alternate = GPIO_AF2_TIM4;
 1587              		.loc 1 754 27 is_stmt 0 view .LVU511
 1588 00e2 0C93     		str	r3, [sp, #48]
 755:Src/tim.c     ****     HAL_GPIO_Init(GPIOD, &GPIO_InitStruct);
 1589              		.loc 1 755 5 is_stmt 1 view .LVU512
 755:Src/tim.c     ****     HAL_GPIO_Init(GPIOD, &GPIO_InitStruct);
 1590              		.loc 1 755 31 is_stmt 0 view .LVU513
 1591 00e4 0D94     		str	r4, [sp, #52]
 756:Src/tim.c     **** 
 1592              		.loc 1 756 5 is_stmt 1 view .LVU514
 1593 00e6 09A9     		add	r1, sp, #36
 1594 00e8 2B48     		ldr	r0, .L116+24
ARM GAS  C:\Users\simon\AppData\Local\Temp\cc9kiOsk.s 			page 45


 1595 00ea FFF7FEFF 		bl	HAL_GPIO_Init
 1596              	.LVL63:
 1597 00ee 9DE7     		b	.L106
 1598              	.LVL64:
 1599              	.L114:
 768:Src/tim.c     **** 
 1600              		.loc 1 768 5 view .LVU515
 1601              	.LBB15:
 768:Src/tim.c     **** 
 1602              		.loc 1 768 5 view .LVU516
 768:Src/tim.c     **** 
 1603              		.loc 1 768 5 view .LVU517
 1604 00f0 264B     		ldr	r3, .L116+12
 1605 00f2 D3F8E820 		ldr	r2, [r3, #232]
 1606 00f6 42F04002 		orr	r2, r2, #64
 1607 00fa C3F8E820 		str	r2, [r3, #232]
 768:Src/tim.c     **** 
 1608              		.loc 1 768 5 view .LVU518
 1609 00fe D3F8E820 		ldr	r2, [r3, #232]
 1610 0102 02F04002 		and	r2, r2, #64
 1611 0106 0592     		str	r2, [sp, #20]
 768:Src/tim.c     **** 
 1612              		.loc 1 768 5 view .LVU519
 1613 0108 059A     		ldr	r2, [sp, #20]
 1614              	.LBE15:
 768:Src/tim.c     **** 
 1615              		.loc 1 768 5 view .LVU520
 770:Src/tim.c     ****     /**TIM12 GPIO Configuration
 1616              		.loc 1 770 5 view .LVU521
 1617              	.LBB16:
 770:Src/tim.c     ****     /**TIM12 GPIO Configuration
 1618              		.loc 1 770 5 view .LVU522
 770:Src/tim.c     ****     /**TIM12 GPIO Configuration
 1619              		.loc 1 770 5 view .LVU523
 1620 010a D3F8E020 		ldr	r2, [r3, #224]
 1621 010e 42F08002 		orr	r2, r2, #128
 1622 0112 C3F8E020 		str	r2, [r3, #224]
 770:Src/tim.c     ****     /**TIM12 GPIO Configuration
 1623              		.loc 1 770 5 view .LVU524
 1624 0116 D3F8E030 		ldr	r3, [r3, #224]
 1625 011a 03F08003 		and	r3, r3, #128
 1626 011e 0693     		str	r3, [sp, #24]
 770:Src/tim.c     ****     /**TIM12 GPIO Configuration
 1627              		.loc 1 770 5 view .LVU525
 1628 0120 069B     		ldr	r3, [sp, #24]
 1629              	.LBE16:
 770:Src/tim.c     ****     /**TIM12 GPIO Configuration
 1630              		.loc 1 770 5 view .LVU526
 774:Src/tim.c     ****     GPIO_InitStruct.Mode = GPIO_MODE_AF_PP;
 1631              		.loc 1 774 5 view .LVU527
 774:Src/tim.c     ****     GPIO_InitStruct.Mode = GPIO_MODE_AF_PP;
 1632              		.loc 1 774 25 is_stmt 0 view .LVU528
 1633 0122 4023     		movs	r3, #64
 1634 0124 0993     		str	r3, [sp, #36]
 775:Src/tim.c     ****     GPIO_InitStruct.Pull = GPIO_NOPULL;
 1635              		.loc 1 775 5 is_stmt 1 view .LVU529
 775:Src/tim.c     ****     GPIO_InitStruct.Pull = GPIO_NOPULL;
ARM GAS  C:\Users\simon\AppData\Local\Temp\cc9kiOsk.s 			page 46


 1636              		.loc 1 775 26 is_stmt 0 view .LVU530
 1637 0126 0223     		movs	r3, #2
 1638 0128 0A93     		str	r3, [sp, #40]
 776:Src/tim.c     ****     GPIO_InitStruct.Speed = GPIO_SPEED_FREQ_LOW;
 1639              		.loc 1 776 5 is_stmt 1 view .LVU531
 777:Src/tim.c     ****     GPIO_InitStruct.Alternate = GPIO_AF2_TIM12;
 1640              		.loc 1 777 5 view .LVU532
 778:Src/tim.c     ****     HAL_GPIO_Init(GPIOH, &GPIO_InitStruct);
 1641              		.loc 1 778 5 view .LVU533
 778:Src/tim.c     ****     HAL_GPIO_Init(GPIOH, &GPIO_InitStruct);
 1642              		.loc 1 778 31 is_stmt 0 view .LVU534
 1643 012a 0D93     		str	r3, [sp, #52]
 779:Src/tim.c     **** 
 1644              		.loc 1 779 5 is_stmt 1 view .LVU535
 1645 012c 09A9     		add	r1, sp, #36
 1646 012e 1B48     		ldr	r0, .L116+28
 1647              	.LVL65:
 779:Src/tim.c     **** 
 1648              		.loc 1 779 5 is_stmt 0 view .LVU536
 1649 0130 FFF7FEFF 		bl	HAL_GPIO_Init
 1650              	.LVL66:
 1651 0134 7AE7     		b	.L106
 1652              	.LVL67:
 1653              	.L115:
 791:Src/tim.c     **** 
 1654              		.loc 1 791 5 is_stmt 1 view .LVU537
 1655              	.LBB17:
 791:Src/tim.c     **** 
 1656              		.loc 1 791 5 view .LVU538
 791:Src/tim.c     **** 
 1657              		.loc 1 791 5 view .LVU539
 1658 0136 154B     		ldr	r3, .L116+12
 1659 0138 D3F8F020 		ldr	r2, [r3, #240]
 1660 013c 42F48032 		orr	r2, r2, #65536
 1661 0140 C3F8F020 		str	r2, [r3, #240]
 791:Src/tim.c     **** 
 1662              		.loc 1 791 5 view .LVU540
 1663 0144 D3F8F020 		ldr	r2, [r3, #240]
 1664 0148 02F48032 		and	r2, r2, #65536
 1665 014c 0792     		str	r2, [sp, #28]
 791:Src/tim.c     **** 
 1666              		.loc 1 791 5 view .LVU541
 1667 014e 079A     		ldr	r2, [sp, #28]
 1668              	.LBE17:
 791:Src/tim.c     **** 
 1669              		.loc 1 791 5 view .LVU542
 793:Src/tim.c     ****     /**TIM15 GPIO Configuration
 1670              		.loc 1 793 5 view .LVU543
 1671              	.LBB18:
 793:Src/tim.c     ****     /**TIM15 GPIO Configuration
 1672              		.loc 1 793 5 view .LVU544
 793:Src/tim.c     ****     /**TIM15 GPIO Configuration
 1673              		.loc 1 793 5 view .LVU545
 1674 0150 D3F8E020 		ldr	r2, [r3, #224]
 1675 0154 42F01002 		orr	r2, r2, #16
 1676 0158 C3F8E020 		str	r2, [r3, #224]
 793:Src/tim.c     ****     /**TIM15 GPIO Configuration
ARM GAS  C:\Users\simon\AppData\Local\Temp\cc9kiOsk.s 			page 47


 1677              		.loc 1 793 5 view .LVU546
 1678 015c D3F8E030 		ldr	r3, [r3, #224]
 1679 0160 03F01003 		and	r3, r3, #16
 1680 0164 0893     		str	r3, [sp, #32]
 793:Src/tim.c     ****     /**TIM15 GPIO Configuration
 1681              		.loc 1 793 5 view .LVU547
 1682 0166 089B     		ldr	r3, [sp, #32]
 1683              	.LBE18:
 793:Src/tim.c     ****     /**TIM15 GPIO Configuration
 1684              		.loc 1 793 5 view .LVU548
 797:Src/tim.c     ****     GPIO_InitStruct.Mode = GPIO_MODE_AF_PP;
 1685              		.loc 1 797 5 view .LVU549
 797:Src/tim.c     ****     GPIO_InitStruct.Mode = GPIO_MODE_AF_PP;
 1686              		.loc 1 797 25 is_stmt 0 view .LVU550
 1687 0168 4023     		movs	r3, #64
 1688 016a 0993     		str	r3, [sp, #36]
 798:Src/tim.c     ****     GPIO_InitStruct.Pull = GPIO_NOPULL;
 1689              		.loc 1 798 5 is_stmt 1 view .LVU551
 798:Src/tim.c     ****     GPIO_InitStruct.Pull = GPIO_NOPULL;
 1690              		.loc 1 798 26 is_stmt 0 view .LVU552
 1691 016c 0223     		movs	r3, #2
 1692 016e 0A93     		str	r3, [sp, #40]
 799:Src/tim.c     ****     GPIO_InitStruct.Speed = GPIO_SPEED_FREQ_LOW;
 1693              		.loc 1 799 5 is_stmt 1 view .LVU553
 800:Src/tim.c     ****     GPIO_InitStruct.Alternate = GPIO_AF4_TIM15;
 1694              		.loc 1 800 5 view .LVU554
 801:Src/tim.c     ****     HAL_GPIO_Init(GPIOE, &GPIO_InitStruct);
 1695              		.loc 1 801 5 view .LVU555
 801:Src/tim.c     ****     HAL_GPIO_Init(GPIOE, &GPIO_InitStruct);
 1696              		.loc 1 801 31 is_stmt 0 view .LVU556
 1697 0170 0423     		movs	r3, #4
 1698 0172 0D93     		str	r3, [sp, #52]
 802:Src/tim.c     **** 
 1699              		.loc 1 802 5 is_stmt 1 view .LVU557
 1700 0174 09A9     		add	r1, sp, #36
 1701 0176 0A48     		ldr	r0, .L116+32
 1702              	.LVL68:
 802:Src/tim.c     **** 
 1703              		.loc 1 802 5 is_stmt 0 view .LVU558
 1704 0178 FFF7FEFF 		bl	HAL_GPIO_Init
 1705              	.LVL69:
 1706              		.loc 1 808 1 view .LVU559
 1707 017c 56E7     		b	.L106
 1708              	.L117:
 1709 017e 00BF     		.align	2
 1710              	.L116:
 1711 0180 00080040 		.word	1073743872
 1712 0184 00180040 		.word	1073747968
 1713 0188 00400140 		.word	1073823744
 1714 018c 00440258 		.word	1476543488
 1715 0190 00000258 		.word	1476526080
 1716 0194 00040258 		.word	1476527104
 1717 0198 000C0258 		.word	1476529152
 1718 019c 001C0258 		.word	1476533248
 1719 01a0 00100258 		.word	1476530176
 1720              		.cfi_endproc
 1721              	.LFE345:
ARM GAS  C:\Users\simon\AppData\Local\Temp\cc9kiOsk.s 			page 48


 1723              		.section	.text.HAL_TIM_Encoder_MspInit,"ax",%progbits
 1724              		.align	1
 1725              		.global	HAL_TIM_Encoder_MspInit
 1726              		.syntax unified
 1727              		.thumb
 1728              		.thumb_func
 1730              	HAL_TIM_Encoder_MspInit:
 1731              	.LVL70:
 1732              	.LFB346:
 809:Src/tim.c     **** 
 810:Src/tim.c     **** void HAL_TIM_Encoder_MspInit(TIM_HandleTypeDef* tim_encoderHandle)
 811:Src/tim.c     **** {
 1733              		.loc 1 811 1 is_stmt 1 view -0
 1734              		.cfi_startproc
 1735              		@ args = 0, pretend = 0, frame = 32
 1736              		@ frame_needed = 0, uses_anonymous_args = 0
 1737              		.loc 1 811 1 is_stmt 0 view .LVU561
 1738 0000 10B5     		push	{r4, lr}
 1739              	.LCFI39:
 1740              		.cfi_def_cfa_offset 8
 1741              		.cfi_offset 4, -8
 1742              		.cfi_offset 14, -4
 1743 0002 88B0     		sub	sp, sp, #32
 1744              	.LCFI40:
 1745              		.cfi_def_cfa_offset 40
 812:Src/tim.c     **** 
 813:Src/tim.c     ****   GPIO_InitTypeDef GPIO_InitStruct = {0};
 1746              		.loc 1 813 3 is_stmt 1 view .LVU562
 1747              		.loc 1 813 20 is_stmt 0 view .LVU563
 1748 0004 0023     		movs	r3, #0
 1749 0006 0393     		str	r3, [sp, #12]
 1750 0008 0493     		str	r3, [sp, #16]
 1751 000a 0593     		str	r3, [sp, #20]
 1752 000c 0693     		str	r3, [sp, #24]
 1753 000e 0793     		str	r3, [sp, #28]
 814:Src/tim.c     ****   if(tim_encoderHandle->Instance==TIM5)
 1754              		.loc 1 814 3 is_stmt 1 view .LVU564
 1755              		.loc 1 814 23 is_stmt 0 view .LVU565
 1756 0010 0268     		ldr	r2, [r0]
 1757              		.loc 1 814 5 view .LVU566
 1758 0012 1F4B     		ldr	r3, .L122
 1759 0014 9A42     		cmp	r2, r3
 1760 0016 01D0     		beq	.L121
 1761              	.LVL71:
 1762              	.L118:
 815:Src/tim.c     ****   {
 816:Src/tim.c     ****   /* USER CODE BEGIN TIM5_MspInit 0 */
 817:Src/tim.c     **** 
 818:Src/tim.c     ****   /* USER CODE END TIM5_MspInit 0 */
 819:Src/tim.c     ****     /* TIM5 clock enable */
 820:Src/tim.c     ****     __HAL_RCC_TIM5_CLK_ENABLE();
 821:Src/tim.c     **** 
 822:Src/tim.c     ****     __HAL_RCC_GPIOA_CLK_ENABLE();
 823:Src/tim.c     ****     __HAL_RCC_GPIOH_CLK_ENABLE();
 824:Src/tim.c     ****     /**TIM5 GPIO Configuration
 825:Src/tim.c     ****     PA1     ------> TIM5_CH2
 826:Src/tim.c     ****     PH10     ------> TIM5_CH1
ARM GAS  C:\Users\simon\AppData\Local\Temp\cc9kiOsk.s 			page 49


 827:Src/tim.c     ****     */
 828:Src/tim.c     ****     GPIO_InitStruct.Pin = GPIO_PIN_1;
 829:Src/tim.c     ****     GPIO_InitStruct.Mode = GPIO_MODE_AF_PP;
 830:Src/tim.c     ****     GPIO_InitStruct.Pull = GPIO_NOPULL;
 831:Src/tim.c     ****     GPIO_InitStruct.Speed = GPIO_SPEED_FREQ_LOW;
 832:Src/tim.c     ****     GPIO_InitStruct.Alternate = GPIO_AF2_TIM5;
 833:Src/tim.c     ****     HAL_GPIO_Init(GPIOA, &GPIO_InitStruct);
 834:Src/tim.c     **** 
 835:Src/tim.c     ****     GPIO_InitStruct.Pin = GPIO_PIN_10;
 836:Src/tim.c     ****     GPIO_InitStruct.Mode = GPIO_MODE_AF_PP;
 837:Src/tim.c     ****     GPIO_InitStruct.Pull = GPIO_NOPULL;
 838:Src/tim.c     ****     GPIO_InitStruct.Speed = GPIO_SPEED_FREQ_LOW;
 839:Src/tim.c     ****     GPIO_InitStruct.Alternate = GPIO_AF2_TIM5;
 840:Src/tim.c     ****     HAL_GPIO_Init(GPIOH, &GPIO_InitStruct);
 841:Src/tim.c     **** 
 842:Src/tim.c     ****   /* USER CODE BEGIN TIM5_MspInit 1 */
 843:Src/tim.c     **** 
 844:Src/tim.c     ****   /* USER CODE END TIM5_MspInit 1 */
 845:Src/tim.c     ****   }
 846:Src/tim.c     **** }
 1763              		.loc 1 846 1 view .LVU567
 1764 0018 08B0     		add	sp, sp, #32
 1765              	.LCFI41:
 1766              		.cfi_remember_state
 1767              		.cfi_def_cfa_offset 8
 1768              		@ sp needed
 1769 001a 10BD     		pop	{r4, pc}
 1770              	.LVL72:
 1771              	.L121:
 1772              	.LCFI42:
 1773              		.cfi_restore_state
 820:Src/tim.c     **** 
 1774              		.loc 1 820 5 is_stmt 1 view .LVU568
 1775              	.LBB19:
 820:Src/tim.c     **** 
 1776              		.loc 1 820 5 view .LVU569
 820:Src/tim.c     **** 
 1777              		.loc 1 820 5 view .LVU570
 1778 001c 1D4B     		ldr	r3, .L122+4
 1779 001e D3F8E820 		ldr	r2, [r3, #232]
 1780 0022 42F00802 		orr	r2, r2, #8
 1781 0026 C3F8E820 		str	r2, [r3, #232]
 820:Src/tim.c     **** 
 1782              		.loc 1 820 5 view .LVU571
 1783 002a D3F8E820 		ldr	r2, [r3, #232]
 1784 002e 02F00802 		and	r2, r2, #8
 1785 0032 0092     		str	r2, [sp]
 820:Src/tim.c     **** 
 1786              		.loc 1 820 5 view .LVU572
 1787 0034 009A     		ldr	r2, [sp]
 1788              	.LBE19:
 820:Src/tim.c     **** 
 1789              		.loc 1 820 5 view .LVU573
 822:Src/tim.c     ****     __HAL_RCC_GPIOH_CLK_ENABLE();
 1790              		.loc 1 822 5 view .LVU574
 1791              	.LBB20:
 822:Src/tim.c     ****     __HAL_RCC_GPIOH_CLK_ENABLE();
ARM GAS  C:\Users\simon\AppData\Local\Temp\cc9kiOsk.s 			page 50


 1792              		.loc 1 822 5 view .LVU575
 822:Src/tim.c     ****     __HAL_RCC_GPIOH_CLK_ENABLE();
 1793              		.loc 1 822 5 view .LVU576
 1794 0036 D3F8E020 		ldr	r2, [r3, #224]
 1795 003a 42F00102 		orr	r2, r2, #1
 1796 003e C3F8E020 		str	r2, [r3, #224]
 822:Src/tim.c     ****     __HAL_RCC_GPIOH_CLK_ENABLE();
 1797              		.loc 1 822 5 view .LVU577
 1798 0042 D3F8E020 		ldr	r2, [r3, #224]
 1799 0046 02F00102 		and	r2, r2, #1
 1800 004a 0192     		str	r2, [sp, #4]
 822:Src/tim.c     ****     __HAL_RCC_GPIOH_CLK_ENABLE();
 1801              		.loc 1 822 5 view .LVU578
 1802 004c 019A     		ldr	r2, [sp, #4]
 1803              	.LBE20:
 822:Src/tim.c     ****     __HAL_RCC_GPIOH_CLK_ENABLE();
 1804              		.loc 1 822 5 view .LVU579
 823:Src/tim.c     ****     /**TIM5 GPIO Configuration
 1805              		.loc 1 823 5 view .LVU580
 1806              	.LBB21:
 823:Src/tim.c     ****     /**TIM5 GPIO Configuration
 1807              		.loc 1 823 5 view .LVU581
 823:Src/tim.c     ****     /**TIM5 GPIO Configuration
 1808              		.loc 1 823 5 view .LVU582
 1809 004e D3F8E020 		ldr	r2, [r3, #224]
 1810 0052 42F08002 		orr	r2, r2, #128
 1811 0056 C3F8E020 		str	r2, [r3, #224]
 823:Src/tim.c     ****     /**TIM5 GPIO Configuration
 1812              		.loc 1 823 5 view .LVU583
 1813 005a D3F8E030 		ldr	r3, [r3, #224]
 1814 005e 03F08003 		and	r3, r3, #128
 1815 0062 0293     		str	r3, [sp, #8]
 823:Src/tim.c     ****     /**TIM5 GPIO Configuration
 1816              		.loc 1 823 5 view .LVU584
 1817 0064 029B     		ldr	r3, [sp, #8]
 1818              	.LBE21:
 823:Src/tim.c     ****     /**TIM5 GPIO Configuration
 1819              		.loc 1 823 5 view .LVU585
 828:Src/tim.c     ****     GPIO_InitStruct.Mode = GPIO_MODE_AF_PP;
 1820              		.loc 1 828 5 view .LVU586
 828:Src/tim.c     ****     GPIO_InitStruct.Mode = GPIO_MODE_AF_PP;
 1821              		.loc 1 828 25 is_stmt 0 view .LVU587
 1822 0066 0224     		movs	r4, #2
 1823 0068 0394     		str	r4, [sp, #12]
 829:Src/tim.c     ****     GPIO_InitStruct.Pull = GPIO_NOPULL;
 1824              		.loc 1 829 5 is_stmt 1 view .LVU588
 829:Src/tim.c     ****     GPIO_InitStruct.Pull = GPIO_NOPULL;
 1825              		.loc 1 829 26 is_stmt 0 view .LVU589
 1826 006a 0494     		str	r4, [sp, #16]
 830:Src/tim.c     ****     GPIO_InitStruct.Speed = GPIO_SPEED_FREQ_LOW;
 1827              		.loc 1 830 5 is_stmt 1 view .LVU590
 831:Src/tim.c     ****     GPIO_InitStruct.Alternate = GPIO_AF2_TIM5;
 1828              		.loc 1 831 5 view .LVU591
 832:Src/tim.c     ****     HAL_GPIO_Init(GPIOA, &GPIO_InitStruct);
 1829              		.loc 1 832 5 view .LVU592
 832:Src/tim.c     ****     HAL_GPIO_Init(GPIOA, &GPIO_InitStruct);
 1830              		.loc 1 832 31 is_stmt 0 view .LVU593
ARM GAS  C:\Users\simon\AppData\Local\Temp\cc9kiOsk.s 			page 51


 1831 006c 0794     		str	r4, [sp, #28]
 833:Src/tim.c     **** 
 1832              		.loc 1 833 5 is_stmt 1 view .LVU594
 1833 006e 03A9     		add	r1, sp, #12
 1834 0070 0948     		ldr	r0, .L122+8
 1835              	.LVL73:
 833:Src/tim.c     **** 
 1836              		.loc 1 833 5 is_stmt 0 view .LVU595
 1837 0072 FFF7FEFF 		bl	HAL_GPIO_Init
 1838              	.LVL74:
 835:Src/tim.c     ****     GPIO_InitStruct.Mode = GPIO_MODE_AF_PP;
 1839              		.loc 1 835 5 is_stmt 1 view .LVU596
 835:Src/tim.c     ****     GPIO_InitStruct.Mode = GPIO_MODE_AF_PP;
 1840              		.loc 1 835 25 is_stmt 0 view .LVU597
 1841 0076 4FF48063 		mov	r3, #1024
 1842 007a 0393     		str	r3, [sp, #12]
 836:Src/tim.c     ****     GPIO_InitStruct.Pull = GPIO_NOPULL;
 1843              		.loc 1 836 5 is_stmt 1 view .LVU598
 836:Src/tim.c     ****     GPIO_InitStruct.Pull = GPIO_NOPULL;
 1844              		.loc 1 836 26 is_stmt 0 view .LVU599
 1845 007c 0494     		str	r4, [sp, #16]
 837:Src/tim.c     ****     GPIO_InitStruct.Speed = GPIO_SPEED_FREQ_LOW;
 1846              		.loc 1 837 5 is_stmt 1 view .LVU600
 837:Src/tim.c     ****     GPIO_InitStruct.Speed = GPIO_SPEED_FREQ_LOW;
 1847              		.loc 1 837 26 is_stmt 0 view .LVU601
 1848 007e 0023     		movs	r3, #0
 1849 0080 0593     		str	r3, [sp, #20]
 838:Src/tim.c     ****     GPIO_InitStruct.Alternate = GPIO_AF2_TIM5;
 1850              		.loc 1 838 5 is_stmt 1 view .LVU602
 838:Src/tim.c     ****     GPIO_InitStruct.Alternate = GPIO_AF2_TIM5;
 1851              		.loc 1 838 27 is_stmt 0 view .LVU603
 1852 0082 0693     		str	r3, [sp, #24]
 839:Src/tim.c     ****     HAL_GPIO_Init(GPIOH, &GPIO_InitStruct);
 1853              		.loc 1 839 5 is_stmt 1 view .LVU604
 839:Src/tim.c     ****     HAL_GPIO_Init(GPIOH, &GPIO_InitStruct);
 1854              		.loc 1 839 31 is_stmt 0 view .LVU605
 1855 0084 0794     		str	r4, [sp, #28]
 840:Src/tim.c     **** 
 1856              		.loc 1 840 5 is_stmt 1 view .LVU606
 1857 0086 03A9     		add	r1, sp, #12
 1858 0088 0448     		ldr	r0, .L122+12
 1859 008a FFF7FEFF 		bl	HAL_GPIO_Init
 1860              	.LVL75:
 1861              		.loc 1 846 1 is_stmt 0 view .LVU607
 1862 008e C3E7     		b	.L118
 1863              	.L123:
 1864              		.align	2
 1865              	.L122:
 1866 0090 000C0040 		.word	1073744896
 1867 0094 00440258 		.word	1476543488
 1868 0098 00000258 		.word	1476526080
 1869 009c 001C0258 		.word	1476533248
 1870              		.cfi_endproc
 1871              	.LFE346:
 1873              		.section	.text.HAL_TIM_MspPostInit,"ax",%progbits
 1874              		.align	1
 1875              		.global	HAL_TIM_MspPostInit
ARM GAS  C:\Users\simon\AppData\Local\Temp\cc9kiOsk.s 			page 52


 1876              		.syntax unified
 1877              		.thumb
 1878              		.thumb_func
 1880              	HAL_TIM_MspPostInit:
 1881              	.LVL76:
 1882              	.LFB347:
 847:Src/tim.c     **** void HAL_TIM_MspPostInit(TIM_HandleTypeDef* timHandle)
 848:Src/tim.c     **** {
 1883              		.loc 1 848 1 is_stmt 1 view -0
 1884              		.cfi_startproc
 1885              		@ args = 0, pretend = 0, frame = 32
 1886              		@ frame_needed = 0, uses_anonymous_args = 0
 1887              		.loc 1 848 1 is_stmt 0 view .LVU609
 1888 0000 00B5     		push	{lr}
 1889              	.LCFI43:
 1890              		.cfi_def_cfa_offset 4
 1891              		.cfi_offset 14, -4
 1892 0002 89B0     		sub	sp, sp, #36
 1893              	.LCFI44:
 1894              		.cfi_def_cfa_offset 40
 849:Src/tim.c     **** 
 850:Src/tim.c     ****   GPIO_InitTypeDef GPIO_InitStruct = {0};
 1895              		.loc 1 850 3 is_stmt 1 view .LVU610
 1896              		.loc 1 850 20 is_stmt 0 view .LVU611
 1897 0004 0023     		movs	r3, #0
 1898 0006 0393     		str	r3, [sp, #12]
 1899 0008 0493     		str	r3, [sp, #16]
 1900 000a 0593     		str	r3, [sp, #20]
 1901 000c 0693     		str	r3, [sp, #24]
 1902 000e 0793     		str	r3, [sp, #28]
 851:Src/tim.c     ****   if(timHandle->Instance==TIM2)
 1903              		.loc 1 851 3 is_stmt 1 view .LVU612
 1904              		.loc 1 851 15 is_stmt 0 view .LVU613
 1905 0010 0368     		ldr	r3, [r0]
 1906              		.loc 1 851 5 view .LVU614
 1907 0012 B3F1804F 		cmp	r3, #1073741824
 1908 0016 08D0     		beq	.L129
 852:Src/tim.c     ****   {
 853:Src/tim.c     ****   /* USER CODE BEGIN TIM2_MspPostInit 0 */
 854:Src/tim.c     **** 
 855:Src/tim.c     ****   /* USER CODE END TIM2_MspPostInit 0 */
 856:Src/tim.c     ****     __HAL_RCC_GPIOB_CLK_ENABLE();
 857:Src/tim.c     ****     /**TIM2 GPIO Configuration
 858:Src/tim.c     ****     PB11     ------> TIM2_CH4
 859:Src/tim.c     ****     */
 860:Src/tim.c     ****     GPIO_InitStruct.Pin = GPIO_PIN_11;
 861:Src/tim.c     ****     GPIO_InitStruct.Mode = GPIO_MODE_AF_PP;
 862:Src/tim.c     ****     GPIO_InitStruct.Pull = GPIO_NOPULL;
 863:Src/tim.c     ****     GPIO_InitStruct.Speed = GPIO_SPEED_FREQ_LOW;
 864:Src/tim.c     ****     GPIO_InitStruct.Alternate = GPIO_AF1_TIM2;
 865:Src/tim.c     ****     HAL_GPIO_Init(GPIOB, &GPIO_InitStruct);
 866:Src/tim.c     **** 
 867:Src/tim.c     ****   /* USER CODE BEGIN TIM2_MspPostInit 1 */
 868:Src/tim.c     **** 
 869:Src/tim.c     ****   /* USER CODE END TIM2_MspPostInit 1 */
 870:Src/tim.c     ****   }
 871:Src/tim.c     ****   else if(timHandle->Instance==TIM8)
ARM GAS  C:\Users\simon\AppData\Local\Temp\cc9kiOsk.s 			page 53


 1909              		.loc 1 871 8 is_stmt 1 view .LVU615
 1910              		.loc 1 871 10 is_stmt 0 view .LVU616
 1911 0018 294A     		ldr	r2, .L132
 1912 001a 9342     		cmp	r3, r2
 1913 001c 1ED0     		beq	.L130
 872:Src/tim.c     ****   {
 873:Src/tim.c     ****   /* USER CODE BEGIN TIM8_MspPostInit 0 */
 874:Src/tim.c     **** 
 875:Src/tim.c     ****   /* USER CODE END TIM8_MspPostInit 0 */
 876:Src/tim.c     **** 
 877:Src/tim.c     ****     __HAL_RCC_GPIOJ_CLK_ENABLE();
 878:Src/tim.c     ****     /**TIM8 GPIO Configuration
 879:Src/tim.c     ****     PJ6     ------> TIM8_CH2
 880:Src/tim.c     ****     */
 881:Src/tim.c     ****     GPIO_InitStruct.Pin = GPIO_PIN_6;
 882:Src/tim.c     ****     GPIO_InitStruct.Mode = GPIO_MODE_AF_PP;
 883:Src/tim.c     ****     GPIO_InitStruct.Pull = GPIO_NOPULL;
 884:Src/tim.c     ****     GPIO_InitStruct.Speed = GPIO_SPEED_FREQ_LOW;
 885:Src/tim.c     ****     GPIO_InitStruct.Alternate = GPIO_AF3_TIM8;
 886:Src/tim.c     ****     HAL_GPIO_Init(GPIOJ, &GPIO_InitStruct);
 887:Src/tim.c     **** 
 888:Src/tim.c     ****   /* USER CODE BEGIN TIM8_MspPostInit 1 */
 889:Src/tim.c     **** 
 890:Src/tim.c     ****   /* USER CODE END TIM8_MspPostInit 1 */
 891:Src/tim.c     ****   }
 892:Src/tim.c     ****   else if(timHandle->Instance==TIM14)
 1914              		.loc 1 892 8 is_stmt 1 view .LVU617
 1915              		.loc 1 892 10 is_stmt 0 view .LVU618
 1916 001e 294A     		ldr	r2, .L132+4
 1917 0020 9342     		cmp	r3, r2
 1918 0022 33D0     		beq	.L131
 1919              	.LVL77:
 1920              	.L124:
 893:Src/tim.c     ****   {
 894:Src/tim.c     ****   /* USER CODE BEGIN TIM14_MspPostInit 0 */
 895:Src/tim.c     **** 
 896:Src/tim.c     ****   /* USER CODE END TIM14_MspPostInit 0 */
 897:Src/tim.c     **** 
 898:Src/tim.c     ****     __HAL_RCC_GPIOF_CLK_ENABLE();
 899:Src/tim.c     ****     /**TIM14 GPIO Configuration
 900:Src/tim.c     ****     PF9     ------> TIM14_CH1
 901:Src/tim.c     ****     */
 902:Src/tim.c     ****     GPIO_InitStruct.Pin = GPIO_PIN_9;
 903:Src/tim.c     ****     GPIO_InitStruct.Mode = GPIO_MODE_AF_PP;
 904:Src/tim.c     ****     GPIO_InitStruct.Pull = GPIO_NOPULL;
 905:Src/tim.c     ****     GPIO_InitStruct.Speed = GPIO_SPEED_FREQ_LOW;
 906:Src/tim.c     ****     GPIO_InitStruct.Alternate = GPIO_AF9_TIM14;
 907:Src/tim.c     ****     HAL_GPIO_Init(GPIOF, &GPIO_InitStruct);
 908:Src/tim.c     **** 
 909:Src/tim.c     ****   /* USER CODE BEGIN TIM14_MspPostInit 1 */
 910:Src/tim.c     **** 
 911:Src/tim.c     ****   /* USER CODE END TIM14_MspPostInit 1 */
 912:Src/tim.c     ****   }
 913:Src/tim.c     **** 
 914:Src/tim.c     **** }
 1921              		.loc 1 914 1 view .LVU619
 1922 0024 09B0     		add	sp, sp, #36
ARM GAS  C:\Users\simon\AppData\Local\Temp\cc9kiOsk.s 			page 54


 1923              	.LCFI45:
 1924              		.cfi_remember_state
 1925              		.cfi_def_cfa_offset 4
 1926              		@ sp needed
 1927 0026 5DF804FB 		ldr	pc, [sp], #4
 1928              	.LVL78:
 1929              	.L129:
 1930              	.LCFI46:
 1931              		.cfi_restore_state
 856:Src/tim.c     ****     /**TIM2 GPIO Configuration
 1932              		.loc 1 856 5 is_stmt 1 view .LVU620
 1933              	.LBB22:
 856:Src/tim.c     ****     /**TIM2 GPIO Configuration
 1934              		.loc 1 856 5 view .LVU621
 856:Src/tim.c     ****     /**TIM2 GPIO Configuration
 1935              		.loc 1 856 5 view .LVU622
 1936 002a 274B     		ldr	r3, .L132+8
 1937 002c D3F8E020 		ldr	r2, [r3, #224]
 1938 0030 42F00202 		orr	r2, r2, #2
 1939 0034 C3F8E020 		str	r2, [r3, #224]
 856:Src/tim.c     ****     /**TIM2 GPIO Configuration
 1940              		.loc 1 856 5 view .LVU623
 1941 0038 D3F8E030 		ldr	r3, [r3, #224]
 1942 003c 03F00203 		and	r3, r3, #2
 1943 0040 0093     		str	r3, [sp]
 856:Src/tim.c     ****     /**TIM2 GPIO Configuration
 1944              		.loc 1 856 5 view .LVU624
 1945 0042 009B     		ldr	r3, [sp]
 1946              	.LBE22:
 856:Src/tim.c     ****     /**TIM2 GPIO Configuration
 1947              		.loc 1 856 5 view .LVU625
 860:Src/tim.c     ****     GPIO_InitStruct.Mode = GPIO_MODE_AF_PP;
 1948              		.loc 1 860 5 view .LVU626
 860:Src/tim.c     ****     GPIO_InitStruct.Mode = GPIO_MODE_AF_PP;
 1949              		.loc 1 860 25 is_stmt 0 view .LVU627
 1950 0044 4FF40063 		mov	r3, #2048
 1951 0048 0393     		str	r3, [sp, #12]
 861:Src/tim.c     ****     GPIO_InitStruct.Pull = GPIO_NOPULL;
 1952              		.loc 1 861 5 is_stmt 1 view .LVU628
 861:Src/tim.c     ****     GPIO_InitStruct.Pull = GPIO_NOPULL;
 1953              		.loc 1 861 26 is_stmt 0 view .LVU629
 1954 004a 0223     		movs	r3, #2
 1955 004c 0493     		str	r3, [sp, #16]
 862:Src/tim.c     ****     GPIO_InitStruct.Speed = GPIO_SPEED_FREQ_LOW;
 1956              		.loc 1 862 5 is_stmt 1 view .LVU630
 863:Src/tim.c     ****     GPIO_InitStruct.Alternate = GPIO_AF1_TIM2;
 1957              		.loc 1 863 5 view .LVU631
 864:Src/tim.c     ****     HAL_GPIO_Init(GPIOB, &GPIO_InitStruct);
 1958              		.loc 1 864 5 view .LVU632
 864:Src/tim.c     ****     HAL_GPIO_Init(GPIOB, &GPIO_InitStruct);
 1959              		.loc 1 864 31 is_stmt 0 view .LVU633
 1960 004e 0123     		movs	r3, #1
 1961 0050 0793     		str	r3, [sp, #28]
 865:Src/tim.c     **** 
 1962              		.loc 1 865 5 is_stmt 1 view .LVU634
 1963 0052 03A9     		add	r1, sp, #12
 1964 0054 1D48     		ldr	r0, .L132+12
ARM GAS  C:\Users\simon\AppData\Local\Temp\cc9kiOsk.s 			page 55


 1965              	.LVL79:
 865:Src/tim.c     **** 
 1966              		.loc 1 865 5 is_stmt 0 view .LVU635
 1967 0056 FFF7FEFF 		bl	HAL_GPIO_Init
 1968              	.LVL80:
 1969 005a E3E7     		b	.L124
 1970              	.LVL81:
 1971              	.L130:
 877:Src/tim.c     ****     /**TIM8 GPIO Configuration
 1972              		.loc 1 877 5 is_stmt 1 view .LVU636
 1973              	.LBB23:
 877:Src/tim.c     ****     /**TIM8 GPIO Configuration
 1974              		.loc 1 877 5 view .LVU637
 877:Src/tim.c     ****     /**TIM8 GPIO Configuration
 1975              		.loc 1 877 5 view .LVU638
 1976 005c 1A4B     		ldr	r3, .L132+8
 1977 005e D3F8E020 		ldr	r2, [r3, #224]
 1978 0062 42F40072 		orr	r2, r2, #512
 1979 0066 C3F8E020 		str	r2, [r3, #224]
 877:Src/tim.c     ****     /**TIM8 GPIO Configuration
 1980              		.loc 1 877 5 view .LVU639
 1981 006a D3F8E030 		ldr	r3, [r3, #224]
 1982 006e 03F40073 		and	r3, r3, #512
 1983 0072 0193     		str	r3, [sp, #4]
 877:Src/tim.c     ****     /**TIM8 GPIO Configuration
 1984              		.loc 1 877 5 view .LVU640
 1985 0074 019B     		ldr	r3, [sp, #4]
 1986              	.LBE23:
 877:Src/tim.c     ****     /**TIM8 GPIO Configuration
 1987              		.loc 1 877 5 view .LVU641
 881:Src/tim.c     ****     GPIO_InitStruct.Mode = GPIO_MODE_AF_PP;
 1988              		.loc 1 881 5 view .LVU642
 881:Src/tim.c     ****     GPIO_InitStruct.Mode = GPIO_MODE_AF_PP;
 1989              		.loc 1 881 25 is_stmt 0 view .LVU643
 1990 0076 4023     		movs	r3, #64
 1991 0078 0393     		str	r3, [sp, #12]
 882:Src/tim.c     ****     GPIO_InitStruct.Pull = GPIO_NOPULL;
 1992              		.loc 1 882 5 is_stmt 1 view .LVU644
 882:Src/tim.c     ****     GPIO_InitStruct.Pull = GPIO_NOPULL;
 1993              		.loc 1 882 26 is_stmt 0 view .LVU645
 1994 007a 0223     		movs	r3, #2
 1995 007c 0493     		str	r3, [sp, #16]
 883:Src/tim.c     ****     GPIO_InitStruct.Speed = GPIO_SPEED_FREQ_LOW;
 1996              		.loc 1 883 5 is_stmt 1 view .LVU646
 884:Src/tim.c     ****     GPIO_InitStruct.Alternate = GPIO_AF3_TIM8;
 1997              		.loc 1 884 5 view .LVU647
 885:Src/tim.c     ****     HAL_GPIO_Init(GPIOJ, &GPIO_InitStruct);
 1998              		.loc 1 885 5 view .LVU648
 885:Src/tim.c     ****     HAL_GPIO_Init(GPIOJ, &GPIO_InitStruct);
 1999              		.loc 1 885 31 is_stmt 0 view .LVU649
 2000 007e 0323     		movs	r3, #3
 2001 0080 0793     		str	r3, [sp, #28]
 886:Src/tim.c     **** 
 2002              		.loc 1 886 5 is_stmt 1 view .LVU650
 2003 0082 03A9     		add	r1, sp, #12
 2004 0084 1248     		ldr	r0, .L132+16
 2005              	.LVL82:
ARM GAS  C:\Users\simon\AppData\Local\Temp\cc9kiOsk.s 			page 56


 886:Src/tim.c     **** 
 2006              		.loc 1 886 5 is_stmt 0 view .LVU651
 2007 0086 FFF7FEFF 		bl	HAL_GPIO_Init
 2008              	.LVL83:
 2009 008a CBE7     		b	.L124
 2010              	.LVL84:
 2011              	.L131:
 898:Src/tim.c     ****     /**TIM14 GPIO Configuration
 2012              		.loc 1 898 5 is_stmt 1 view .LVU652
 2013              	.LBB24:
 898:Src/tim.c     ****     /**TIM14 GPIO Configuration
 2014              		.loc 1 898 5 view .LVU653
 898:Src/tim.c     ****     /**TIM14 GPIO Configuration
 2015              		.loc 1 898 5 view .LVU654
 2016 008c 0E4B     		ldr	r3, .L132+8
 2017 008e D3F8E020 		ldr	r2, [r3, #224]
 2018 0092 42F02002 		orr	r2, r2, #32
 2019 0096 C3F8E020 		str	r2, [r3, #224]
 898:Src/tim.c     ****     /**TIM14 GPIO Configuration
 2020              		.loc 1 898 5 view .LVU655
 2021 009a D3F8E030 		ldr	r3, [r3, #224]
 2022 009e 03F02003 		and	r3, r3, #32
 2023 00a2 0293     		str	r3, [sp, #8]
 898:Src/tim.c     ****     /**TIM14 GPIO Configuration
 2024              		.loc 1 898 5 view .LVU656
 2025 00a4 029B     		ldr	r3, [sp, #8]
 2026              	.LBE24:
 898:Src/tim.c     ****     /**TIM14 GPIO Configuration
 2027              		.loc 1 898 5 view .LVU657
 902:Src/tim.c     ****     GPIO_InitStruct.Mode = GPIO_MODE_AF_PP;
 2028              		.loc 1 902 5 view .LVU658
 902:Src/tim.c     ****     GPIO_InitStruct.Mode = GPIO_MODE_AF_PP;
 2029              		.loc 1 902 25 is_stmt 0 view .LVU659
 2030 00a6 4FF40073 		mov	r3, #512
 2031 00aa 0393     		str	r3, [sp, #12]
 903:Src/tim.c     ****     GPIO_InitStruct.Pull = GPIO_NOPULL;
 2032              		.loc 1 903 5 is_stmt 1 view .LVU660
 903:Src/tim.c     ****     GPIO_InitStruct.Pull = GPIO_NOPULL;
 2033              		.loc 1 903 26 is_stmt 0 view .LVU661
 2034 00ac 0223     		movs	r3, #2
 2035 00ae 0493     		str	r3, [sp, #16]
 904:Src/tim.c     ****     GPIO_InitStruct.Speed = GPIO_SPEED_FREQ_LOW;
 2036              		.loc 1 904 5 is_stmt 1 view .LVU662
 905:Src/tim.c     ****     GPIO_InitStruct.Alternate = GPIO_AF9_TIM14;
 2037              		.loc 1 905 5 view .LVU663
 906:Src/tim.c     ****     HAL_GPIO_Init(GPIOF, &GPIO_InitStruct);
 2038              		.loc 1 906 5 view .LVU664
 906:Src/tim.c     ****     HAL_GPIO_Init(GPIOF, &GPIO_InitStruct);
 2039              		.loc 1 906 31 is_stmt 0 view .LVU665
 2040 00b0 0923     		movs	r3, #9
 2041 00b2 0793     		str	r3, [sp, #28]
 907:Src/tim.c     **** 
 2042              		.loc 1 907 5 is_stmt 1 view .LVU666
 2043 00b4 03A9     		add	r1, sp, #12
 2044 00b6 0748     		ldr	r0, .L132+20
 2045              	.LVL85:
 907:Src/tim.c     **** 
ARM GAS  C:\Users\simon\AppData\Local\Temp\cc9kiOsk.s 			page 57


 2046              		.loc 1 907 5 is_stmt 0 view .LVU667
 2047 00b8 FFF7FEFF 		bl	HAL_GPIO_Init
 2048              	.LVL86:
 2049              		.loc 1 914 1 view .LVU668
 2050 00bc B2E7     		b	.L124
 2051              	.L133:
 2052 00be 00BF     		.align	2
 2053              	.L132:
 2054 00c0 00040140 		.word	1073808384
 2055 00c4 00200040 		.word	1073750016
 2056 00c8 00440258 		.word	1476543488
 2057 00cc 00040258 		.word	1476527104
 2058 00d0 00240258 		.word	1476535296
 2059 00d4 00140258 		.word	1476531200
 2060              		.cfi_endproc
 2061              	.LFE347:
 2063              		.section	.text.MX_TIM2_Init,"ax",%progbits
 2064              		.align	1
 2065              		.global	MX_TIM2_Init
 2066              		.syntax unified
 2067              		.thumb
 2068              		.thumb_func
 2070              	MX_TIM2_Init:
 2071              	.LFB332:
  85:Src/tim.c     **** 
 2072              		.loc 1 85 1 is_stmt 1 view -0
 2073              		.cfi_startproc
 2074              		@ args = 0, pretend = 0, frame = 56
 2075              		@ frame_needed = 0, uses_anonymous_args = 0
 2076 0000 00B5     		push	{lr}
 2077              	.LCFI47:
 2078              		.cfi_def_cfa_offset 4
 2079              		.cfi_offset 14, -4
 2080 0002 8FB0     		sub	sp, sp, #60
 2081              	.LCFI48:
 2082              		.cfi_def_cfa_offset 64
  91:Src/tim.c     ****   TIM_IC_InitTypeDef sConfigIC = {0};
 2083              		.loc 1 91 3 view .LVU670
  91:Src/tim.c     ****   TIM_IC_InitTypeDef sConfigIC = {0};
 2084              		.loc 1 91 27 is_stmt 0 view .LVU671
 2085 0004 0023     		movs	r3, #0
 2086 0006 0B93     		str	r3, [sp, #44]
 2087 0008 0C93     		str	r3, [sp, #48]
 2088 000a 0D93     		str	r3, [sp, #52]
  92:Src/tim.c     ****   TIM_OC_InitTypeDef sConfigOC = {0};
 2089              		.loc 1 92 3 is_stmt 1 view .LVU672
  92:Src/tim.c     ****   TIM_OC_InitTypeDef sConfigOC = {0};
 2090              		.loc 1 92 22 is_stmt 0 view .LVU673
 2091 000c 0793     		str	r3, [sp, #28]
 2092 000e 0893     		str	r3, [sp, #32]
 2093 0010 0993     		str	r3, [sp, #36]
 2094 0012 0A93     		str	r3, [sp, #40]
  93:Src/tim.c     **** 
 2095              		.loc 1 93 3 is_stmt 1 view .LVU674
  93:Src/tim.c     **** 
 2096              		.loc 1 93 22 is_stmt 0 view .LVU675
 2097 0014 0093     		str	r3, [sp]
ARM GAS  C:\Users\simon\AppData\Local\Temp\cc9kiOsk.s 			page 58


 2098 0016 0193     		str	r3, [sp, #4]
 2099 0018 0293     		str	r3, [sp, #8]
 2100 001a 0393     		str	r3, [sp, #12]
 2101 001c 0493     		str	r3, [sp, #16]
 2102 001e 0593     		str	r3, [sp, #20]
 2103 0020 0693     		str	r3, [sp, #24]
  98:Src/tim.c     ****   htim2.Init.Prescaler = 0;
 2104              		.loc 1 98 3 is_stmt 1 view .LVU676
  98:Src/tim.c     ****   htim2.Init.Prescaler = 0;
 2105              		.loc 1 98 18 is_stmt 0 view .LVU677
 2106 0022 2848     		ldr	r0, .L148
 2107 0024 4FF08042 		mov	r2, #1073741824
 2108 0028 0260     		str	r2, [r0]
  99:Src/tim.c     ****   htim2.Init.CounterMode = TIM_COUNTERMODE_UP;
 2109              		.loc 1 99 3 is_stmt 1 view .LVU678
  99:Src/tim.c     ****   htim2.Init.CounterMode = TIM_COUNTERMODE_UP;
 2110              		.loc 1 99 24 is_stmt 0 view .LVU679
 2111 002a 4360     		str	r3, [r0, #4]
 100:Src/tim.c     ****   htim2.Init.Period = 4294967295;
 2112              		.loc 1 100 3 is_stmt 1 view .LVU680
 100:Src/tim.c     ****   htim2.Init.Period = 4294967295;
 2113              		.loc 1 100 26 is_stmt 0 view .LVU681
 2114 002c 8360     		str	r3, [r0, #8]
 101:Src/tim.c     ****   htim2.Init.ClockDivision = TIM_CLOCKDIVISION_DIV1;
 2115              		.loc 1 101 3 is_stmt 1 view .LVU682
 101:Src/tim.c     ****   htim2.Init.ClockDivision = TIM_CLOCKDIVISION_DIV1;
 2116              		.loc 1 101 21 is_stmt 0 view .LVU683
 2117 002e 4FF0FF32 		mov	r2, #-1
 2118 0032 C260     		str	r2, [r0, #12]
 102:Src/tim.c     ****   htim2.Init.AutoReloadPreload = TIM_AUTORELOAD_PRELOAD_DISABLE;
 2119              		.loc 1 102 3 is_stmt 1 view .LVU684
 102:Src/tim.c     ****   htim2.Init.AutoReloadPreload = TIM_AUTORELOAD_PRELOAD_DISABLE;
 2120              		.loc 1 102 28 is_stmt 0 view .LVU685
 2121 0034 0361     		str	r3, [r0, #16]
 103:Src/tim.c     ****   if (HAL_TIM_IC_Init(&htim2) != HAL_OK)
 2122              		.loc 1 103 3 is_stmt 1 view .LVU686
 103:Src/tim.c     ****   if (HAL_TIM_IC_Init(&htim2) != HAL_OK)
 2123              		.loc 1 103 32 is_stmt 0 view .LVU687
 2124 0036 8361     		str	r3, [r0, #24]
 104:Src/tim.c     ****   {
 2125              		.loc 1 104 3 is_stmt 1 view .LVU688
 104:Src/tim.c     ****   {
 2126              		.loc 1 104 7 is_stmt 0 view .LVU689
 2127 0038 FFF7FEFF 		bl	HAL_TIM_IC_Init
 2128              	.LVL87:
 104:Src/tim.c     ****   {
 2129              		.loc 1 104 6 view .LVU690
 2130 003c 0028     		cmp	r0, #0
 2131 003e 2FD1     		bne	.L142
 2132              	.L135:
 108:Src/tim.c     ****   {
 2133              		.loc 1 108 3 is_stmt 1 view .LVU691
 108:Src/tim.c     ****   {
 2134              		.loc 1 108 7 is_stmt 0 view .LVU692
 2135 0040 2048     		ldr	r0, .L148
 2136 0042 FFF7FEFF 		bl	HAL_TIM_PWM_Init
 2137              	.LVL88:
ARM GAS  C:\Users\simon\AppData\Local\Temp\cc9kiOsk.s 			page 59


 108:Src/tim.c     ****   {
 2138              		.loc 1 108 6 view .LVU693
 2139 0046 0028     		cmp	r0, #0
 2140 0048 2DD1     		bne	.L143
 2141              	.L136:
 112:Src/tim.c     ****   sMasterConfig.MasterSlaveMode = TIM_MASTERSLAVEMODE_DISABLE;
 2142              		.loc 1 112 3 is_stmt 1 view .LVU694
 112:Src/tim.c     ****   sMasterConfig.MasterSlaveMode = TIM_MASTERSLAVEMODE_DISABLE;
 2143              		.loc 1 112 37 is_stmt 0 view .LVU695
 2144 004a 0023     		movs	r3, #0
 2145 004c 0B93     		str	r3, [sp, #44]
 113:Src/tim.c     ****   if (HAL_TIMEx_MasterConfigSynchronization(&htim2, &sMasterConfig) != HAL_OK)
 2146              		.loc 1 113 3 is_stmt 1 view .LVU696
 113:Src/tim.c     ****   if (HAL_TIMEx_MasterConfigSynchronization(&htim2, &sMasterConfig) != HAL_OK)
 2147              		.loc 1 113 33 is_stmt 0 view .LVU697
 2148 004e 0D93     		str	r3, [sp, #52]
 114:Src/tim.c     ****   {
 2149              		.loc 1 114 3 is_stmt 1 view .LVU698
 114:Src/tim.c     ****   {
 2150              		.loc 1 114 7 is_stmt 0 view .LVU699
 2151 0050 0BA9     		add	r1, sp, #44
 2152 0052 1C48     		ldr	r0, .L148
 2153 0054 FFF7FEFF 		bl	HAL_TIMEx_MasterConfigSynchronization
 2154              	.LVL89:
 114:Src/tim.c     ****   {
 2155              		.loc 1 114 6 view .LVU700
 2156 0058 40BB     		cbnz	r0, .L144
 2157              	.L137:
 118:Src/tim.c     ****   sConfigIC.ICSelection = TIM_ICSELECTION_DIRECTTI;
 2158              		.loc 1 118 3 is_stmt 1 view .LVU701
 118:Src/tim.c     ****   sConfigIC.ICSelection = TIM_ICSELECTION_DIRECTTI;
 2159              		.loc 1 118 24 is_stmt 0 view .LVU702
 2160 005a 0022     		movs	r2, #0
 2161 005c 0792     		str	r2, [sp, #28]
 119:Src/tim.c     ****   sConfigIC.ICPrescaler = TIM_ICPSC_DIV1;
 2162              		.loc 1 119 3 is_stmt 1 view .LVU703
 119:Src/tim.c     ****   sConfigIC.ICPrescaler = TIM_ICPSC_DIV1;
 2163              		.loc 1 119 25 is_stmt 0 view .LVU704
 2164 005e 0123     		movs	r3, #1
 2165 0060 0893     		str	r3, [sp, #32]
 120:Src/tim.c     ****   sConfigIC.ICFilter = 0;
 2166              		.loc 1 120 3 is_stmt 1 view .LVU705
 120:Src/tim.c     ****   sConfigIC.ICFilter = 0;
 2167              		.loc 1 120 25 is_stmt 0 view .LVU706
 2168 0062 0992     		str	r2, [sp, #36]
 121:Src/tim.c     ****   if (HAL_TIM_IC_ConfigChannel(&htim2, &sConfigIC, TIM_CHANNEL_1) != HAL_OK)
 2169              		.loc 1 121 3 is_stmt 1 view .LVU707
 121:Src/tim.c     ****   if (HAL_TIM_IC_ConfigChannel(&htim2, &sConfigIC, TIM_CHANNEL_1) != HAL_OK)
 2170              		.loc 1 121 22 is_stmt 0 view .LVU708
 2171 0064 0A92     		str	r2, [sp, #40]
 122:Src/tim.c     ****   {
 2172              		.loc 1 122 3 is_stmt 1 view .LVU709
 122:Src/tim.c     ****   {
 2173              		.loc 1 122 7 is_stmt 0 view .LVU710
 2174 0066 07A9     		add	r1, sp, #28
 2175 0068 1648     		ldr	r0, .L148
 2176 006a FFF7FEFF 		bl	HAL_TIM_IC_ConfigChannel
ARM GAS  C:\Users\simon\AppData\Local\Temp\cc9kiOsk.s 			page 60


 2177              	.LVL90:
 122:Src/tim.c     ****   {
 2178              		.loc 1 122 6 view .LVU711
 2179 006e 00BB     		cbnz	r0, .L145
 2180              	.L138:
 126:Src/tim.c     ****   {
 2181              		.loc 1 126 3 is_stmt 1 view .LVU712
 126:Src/tim.c     ****   {
 2182              		.loc 1 126 7 is_stmt 0 view .LVU713
 2183 0070 0822     		movs	r2, #8
 2184 0072 07A9     		add	r1, sp, #28
 2185 0074 1348     		ldr	r0, .L148
 2186 0076 FFF7FEFF 		bl	HAL_TIM_IC_ConfigChannel
 2187              	.LVL91:
 126:Src/tim.c     ****   {
 2188              		.loc 1 126 6 view .LVU714
 2189 007a E8B9     		cbnz	r0, .L146
 2190              	.L139:
 130:Src/tim.c     ****   sConfigOC.Pulse = 0;
 2191              		.loc 1 130 3 is_stmt 1 view .LVU715
 130:Src/tim.c     ****   sConfigOC.Pulse = 0;
 2192              		.loc 1 130 20 is_stmt 0 view .LVU716
 2193 007c 6023     		movs	r3, #96
 2194 007e 0093     		str	r3, [sp]
 131:Src/tim.c     ****   sConfigOC.OCPolarity = TIM_OCPOLARITY_HIGH;
 2195              		.loc 1 131 3 is_stmt 1 view .LVU717
 131:Src/tim.c     ****   sConfigOC.OCPolarity = TIM_OCPOLARITY_HIGH;
 2196              		.loc 1 131 19 is_stmt 0 view .LVU718
 2197 0080 0023     		movs	r3, #0
 2198 0082 0193     		str	r3, [sp, #4]
 132:Src/tim.c     ****   sConfigOC.OCFastMode = TIM_OCFAST_DISABLE;
 2199              		.loc 1 132 3 is_stmt 1 view .LVU719
 132:Src/tim.c     ****   sConfigOC.OCFastMode = TIM_OCFAST_DISABLE;
 2200              		.loc 1 132 24 is_stmt 0 view .LVU720
 2201 0084 0293     		str	r3, [sp, #8]
 133:Src/tim.c     ****   if (HAL_TIM_PWM_ConfigChannel(&htim2, &sConfigOC, TIM_CHANNEL_4) != HAL_OK)
 2202              		.loc 1 133 3 is_stmt 1 view .LVU721
 133:Src/tim.c     ****   if (HAL_TIM_PWM_ConfigChannel(&htim2, &sConfigOC, TIM_CHANNEL_4) != HAL_OK)
 2203              		.loc 1 133 24 is_stmt 0 view .LVU722
 2204 0086 0493     		str	r3, [sp, #16]
 134:Src/tim.c     ****   {
 2205              		.loc 1 134 3 is_stmt 1 view .LVU723
 134:Src/tim.c     ****   {
 2206              		.loc 1 134 7 is_stmt 0 view .LVU724
 2207 0088 0C22     		movs	r2, #12
 2208 008a 6946     		mov	r1, sp
 2209 008c 0D48     		ldr	r0, .L148
 2210 008e FFF7FEFF 		bl	HAL_TIM_PWM_ConfigChannel
 2211              	.LVL92:
 134:Src/tim.c     ****   {
 2212              		.loc 1 134 6 view .LVU725
 2213 0092 A0B9     		cbnz	r0, .L147
 2214              	.L140:
 141:Src/tim.c     **** 
 2215              		.loc 1 141 3 is_stmt 1 view .LVU726
 2216 0094 0B48     		ldr	r0, .L148
 2217 0096 FFF7FEFF 		bl	HAL_TIM_MspPostInit
ARM GAS  C:\Users\simon\AppData\Local\Temp\cc9kiOsk.s 			page 61


 2218              	.LVL93:
 143:Src/tim.c     **** /* TIM4 init function */
 2219              		.loc 1 143 1 is_stmt 0 view .LVU727
 2220 009a 0FB0     		add	sp, sp, #60
 2221              	.LCFI49:
 2222              		.cfi_remember_state
 2223              		.cfi_def_cfa_offset 4
 2224              		@ sp needed
 2225 009c 5DF804FB 		ldr	pc, [sp], #4
 2226              	.L142:
 2227              	.LCFI50:
 2228              		.cfi_restore_state
 106:Src/tim.c     ****   }
 2229              		.loc 1 106 5 is_stmt 1 view .LVU728
 2230 00a0 FFF7FEFF 		bl	Error_Handler
 2231              	.LVL94:
 2232 00a4 CCE7     		b	.L135
 2233              	.L143:
 110:Src/tim.c     ****   }
 2234              		.loc 1 110 5 view .LVU729
 2235 00a6 FFF7FEFF 		bl	Error_Handler
 2236              	.LVL95:
 2237 00aa CEE7     		b	.L136
 2238              	.L144:
 116:Src/tim.c     ****   }
 2239              		.loc 1 116 5 view .LVU730
 2240 00ac FFF7FEFF 		bl	Error_Handler
 2241              	.LVL96:
 2242 00b0 D3E7     		b	.L137
 2243              	.L145:
 124:Src/tim.c     ****   }
 2244              		.loc 1 124 5 view .LVU731
 2245 00b2 FFF7FEFF 		bl	Error_Handler
 2246              	.LVL97:
 2247 00b6 DBE7     		b	.L138
 2248              	.L146:
 128:Src/tim.c     ****   }
 2249              		.loc 1 128 5 view .LVU732
 2250 00b8 FFF7FEFF 		bl	Error_Handler
 2251              	.LVL98:
 2252 00bc DEE7     		b	.L139
 2253              	.L147:
 136:Src/tim.c     ****   }
 2254              		.loc 1 136 5 view .LVU733
 2255 00be FFF7FEFF 		bl	Error_Handler
 2256              	.LVL99:
 2257 00c2 E7E7     		b	.L140
 2258              	.L149:
 2259              		.align	2
 2260              	.L148:
 2261 00c4 00000000 		.word	.LANCHOR10
 2262              		.cfi_endproc
 2263              	.LFE332:
 2265              		.section	.text.MX_TIM8_Init,"ax",%progbits
 2266              		.align	1
 2267              		.global	MX_TIM8_Init
 2268              		.syntax unified
ARM GAS  C:\Users\simon\AppData\Local\Temp\cc9kiOsk.s 			page 62


 2269              		.thumb
 2270              		.thumb_func
 2272              	MX_TIM8_Init:
 2273              	.LFB337:
 313:Src/tim.c     **** 
 2274              		.loc 1 313 1 view -0
 2275              		.cfi_startproc
 2276              		@ args = 0, pretend = 0, frame = 104
 2277              		@ frame_needed = 0, uses_anonymous_args = 0
 2278 0000 10B5     		push	{r4, lr}
 2279              	.LCFI51:
 2280              		.cfi_def_cfa_offset 8
 2281              		.cfi_offset 4, -8
 2282              		.cfi_offset 14, -4
 2283 0002 9AB0     		sub	sp, sp, #104
 2284              	.LCFI52:
 2285              		.cfi_def_cfa_offset 112
 319:Src/tim.c     ****   TIM_MasterConfigTypeDef sMasterConfig = {0};
 2286              		.loc 1 319 3 view .LVU735
 319:Src/tim.c     ****   TIM_MasterConfigTypeDef sMasterConfig = {0};
 2287              		.loc 1 319 26 is_stmt 0 view .LVU736
 2288 0004 0024     		movs	r4, #0
 2289 0006 1694     		str	r4, [sp, #88]
 2290 0008 1794     		str	r4, [sp, #92]
 2291 000a 1894     		str	r4, [sp, #96]
 2292 000c 1994     		str	r4, [sp, #100]
 320:Src/tim.c     ****   TIM_OC_InitTypeDef sConfigOC = {0};
 2293              		.loc 1 320 3 is_stmt 1 view .LVU737
 320:Src/tim.c     ****   TIM_OC_InitTypeDef sConfigOC = {0};
 2294              		.loc 1 320 27 is_stmt 0 view .LVU738
 2295 000e 1394     		str	r4, [sp, #76]
 2296 0010 1494     		str	r4, [sp, #80]
 2297 0012 1594     		str	r4, [sp, #84]
 321:Src/tim.c     ****   TIM_BreakDeadTimeConfigTypeDef sBreakDeadTimeConfig = {0};
 2298              		.loc 1 321 3 is_stmt 1 view .LVU739
 321:Src/tim.c     ****   TIM_BreakDeadTimeConfigTypeDef sBreakDeadTimeConfig = {0};
 2299              		.loc 1 321 22 is_stmt 0 view .LVU740
 2300 0014 0C94     		str	r4, [sp, #48]
 2301 0016 0D94     		str	r4, [sp, #52]
 2302 0018 0E94     		str	r4, [sp, #56]
 2303 001a 0F94     		str	r4, [sp, #60]
 2304 001c 1094     		str	r4, [sp, #64]
 2305 001e 1194     		str	r4, [sp, #68]
 2306 0020 1294     		str	r4, [sp, #72]
 322:Src/tim.c     **** 
 2307              		.loc 1 322 3 is_stmt 1 view .LVU741
 322:Src/tim.c     **** 
 2308              		.loc 1 322 34 is_stmt 0 view .LVU742
 2309 0022 2C22     		movs	r2, #44
 2310 0024 2146     		mov	r1, r4
 2311 0026 01A8     		add	r0, sp, #4
 2312 0028 FFF7FEFF 		bl	memset
 2313              	.LVL100:
 327:Src/tim.c     ****   htim8.Init.Prescaler = 255;
 2314              		.loc 1 327 3 is_stmt 1 view .LVU743
 327:Src/tim.c     ****   htim8.Init.Prescaler = 255;
 2315              		.loc 1 327 18 is_stmt 0 view .LVU744
ARM GAS  C:\Users\simon\AppData\Local\Temp\cc9kiOsk.s 			page 63


 2316 002c 3148     		ldr	r0, .L164
 2317 002e 324B     		ldr	r3, .L164+4
 2318 0030 0360     		str	r3, [r0]
 328:Src/tim.c     ****   htim8.Init.CounterMode = TIM_COUNTERMODE_UP;
 2319              		.loc 1 328 3 is_stmt 1 view .LVU745
 328:Src/tim.c     ****   htim8.Init.CounterMode = TIM_COUNTERMODE_UP;
 2320              		.loc 1 328 24 is_stmt 0 view .LVU746
 2321 0032 FF23     		movs	r3, #255
 2322 0034 4360     		str	r3, [r0, #4]
 329:Src/tim.c     ****   htim8.Init.Period = 586;
 2323              		.loc 1 329 3 is_stmt 1 view .LVU747
 329:Src/tim.c     ****   htim8.Init.Period = 586;
 2324              		.loc 1 329 26 is_stmt 0 view .LVU748
 2325 0036 8460     		str	r4, [r0, #8]
 330:Src/tim.c     ****   htim8.Init.ClockDivision = TIM_CLOCKDIVISION_DIV1;
 2326              		.loc 1 330 3 is_stmt 1 view .LVU749
 330:Src/tim.c     ****   htim8.Init.ClockDivision = TIM_CLOCKDIVISION_DIV1;
 2327              		.loc 1 330 21 is_stmt 0 view .LVU750
 2328 0038 40F24A23 		movw	r3, #586
 2329 003c C360     		str	r3, [r0, #12]
 331:Src/tim.c     ****   htim8.Init.RepetitionCounter = 0;
 2330              		.loc 1 331 3 is_stmt 1 view .LVU751
 331:Src/tim.c     ****   htim8.Init.RepetitionCounter = 0;
 2331              		.loc 1 331 28 is_stmt 0 view .LVU752
 2332 003e 0461     		str	r4, [r0, #16]
 332:Src/tim.c     ****   htim8.Init.AutoReloadPreload = TIM_AUTORELOAD_PRELOAD_DISABLE;
 2333              		.loc 1 332 3 is_stmt 1 view .LVU753
 332:Src/tim.c     ****   htim8.Init.AutoReloadPreload = TIM_AUTORELOAD_PRELOAD_DISABLE;
 2334              		.loc 1 332 32 is_stmt 0 view .LVU754
 2335 0040 4461     		str	r4, [r0, #20]
 333:Src/tim.c     ****   if (HAL_TIM_Base_Init(&htim8) != HAL_OK)
 2336              		.loc 1 333 3 is_stmt 1 view .LVU755
 333:Src/tim.c     ****   if (HAL_TIM_Base_Init(&htim8) != HAL_OK)
 2337              		.loc 1 333 32 is_stmt 0 view .LVU756
 2338 0042 8461     		str	r4, [r0, #24]
 334:Src/tim.c     ****   {
 2339              		.loc 1 334 3 is_stmt 1 view .LVU757
 334:Src/tim.c     ****   {
 2340              		.loc 1 334 7 is_stmt 0 view .LVU758
 2341 0044 FFF7FEFF 		bl	HAL_TIM_Base_Init
 2342              	.LVL101:
 334:Src/tim.c     ****   {
 2343              		.loc 1 334 6 view .LVU759
 2344 0048 0028     		cmp	r0, #0
 2345 004a 40D1     		bne	.L158
 2346              	.L151:
 338:Src/tim.c     ****   if (HAL_TIM_ConfigClockSource(&htim8, &sClockSourceConfig) != HAL_OK)
 2347              		.loc 1 338 3 is_stmt 1 view .LVU760
 338:Src/tim.c     ****   if (HAL_TIM_ConfigClockSource(&htim8, &sClockSourceConfig) != HAL_OK)
 2348              		.loc 1 338 34 is_stmt 0 view .LVU761
 2349 004c 4FF48053 		mov	r3, #4096
 2350 0050 1693     		str	r3, [sp, #88]
 339:Src/tim.c     ****   {
 2351              		.loc 1 339 3 is_stmt 1 view .LVU762
 339:Src/tim.c     ****   {
 2352              		.loc 1 339 7 is_stmt 0 view .LVU763
 2353 0052 16A9     		add	r1, sp, #88
ARM GAS  C:\Users\simon\AppData\Local\Temp\cc9kiOsk.s 			page 64


 2354 0054 2748     		ldr	r0, .L164
 2355 0056 FFF7FEFF 		bl	HAL_TIM_ConfigClockSource
 2356              	.LVL102:
 339:Src/tim.c     ****   {
 2357              		.loc 1 339 6 view .LVU764
 2358 005a 0028     		cmp	r0, #0
 2359 005c 3AD1     		bne	.L159
 2360              	.L152:
 343:Src/tim.c     ****   {
 2361              		.loc 1 343 3 is_stmt 1 view .LVU765
 343:Src/tim.c     ****   {
 2362              		.loc 1 343 7 is_stmt 0 view .LVU766
 2363 005e 2548     		ldr	r0, .L164
 2364 0060 FFF7FEFF 		bl	HAL_TIM_PWM_Init
 2365              	.LVL103:
 343:Src/tim.c     ****   {
 2366              		.loc 1 343 6 view .LVU767
 2367 0064 0028     		cmp	r0, #0
 2368 0066 38D1     		bne	.L160
 2369              	.L153:
 347:Src/tim.c     ****   sMasterConfig.MasterOutputTrigger2 = TIM_TRGO2_RESET;
 2370              		.loc 1 347 3 is_stmt 1 view .LVU768
 347:Src/tim.c     ****   sMasterConfig.MasterOutputTrigger2 = TIM_TRGO2_RESET;
 2371              		.loc 1 347 37 is_stmt 0 view .LVU769
 2372 0068 0023     		movs	r3, #0
 2373 006a 1393     		str	r3, [sp, #76]
 348:Src/tim.c     ****   sMasterConfig.MasterSlaveMode = TIM_MASTERSLAVEMODE_DISABLE;
 2374              		.loc 1 348 3 is_stmt 1 view .LVU770
 348:Src/tim.c     ****   sMasterConfig.MasterSlaveMode = TIM_MASTERSLAVEMODE_DISABLE;
 2375              		.loc 1 348 38 is_stmt 0 view .LVU771
 2376 006c 1493     		str	r3, [sp, #80]
 349:Src/tim.c     ****   if (HAL_TIMEx_MasterConfigSynchronization(&htim8, &sMasterConfig) != HAL_OK)
 2377              		.loc 1 349 3 is_stmt 1 view .LVU772
 349:Src/tim.c     ****   if (HAL_TIMEx_MasterConfigSynchronization(&htim8, &sMasterConfig) != HAL_OK)
 2378              		.loc 1 349 33 is_stmt 0 view .LVU773
 2379 006e 1593     		str	r3, [sp, #84]
 350:Src/tim.c     ****   {
 2380              		.loc 1 350 3 is_stmt 1 view .LVU774
 350:Src/tim.c     ****   {
 2381              		.loc 1 350 7 is_stmt 0 view .LVU775
 2382 0070 13A9     		add	r1, sp, #76
 2383 0072 2048     		ldr	r0, .L164
 2384 0074 FFF7FEFF 		bl	HAL_TIMEx_MasterConfigSynchronization
 2385              	.LVL104:
 350:Src/tim.c     ****   {
 2386              		.loc 1 350 6 view .LVU776
 2387 0078 0028     		cmp	r0, #0
 2388 007a 31D1     		bne	.L161
 2389              	.L154:
 354:Src/tim.c     ****   sConfigOC.Pulse = 0;
 2390              		.loc 1 354 3 is_stmt 1 view .LVU777
 354:Src/tim.c     ****   sConfigOC.Pulse = 0;
 2391              		.loc 1 354 20 is_stmt 0 view .LVU778
 2392 007c 7023     		movs	r3, #112
 2393 007e 0C93     		str	r3, [sp, #48]
 355:Src/tim.c     ****   sConfigOC.OCPolarity = TIM_OCPOLARITY_HIGH;
 2394              		.loc 1 355 3 is_stmt 1 view .LVU779
ARM GAS  C:\Users\simon\AppData\Local\Temp\cc9kiOsk.s 			page 65


 355:Src/tim.c     ****   sConfigOC.OCPolarity = TIM_OCPOLARITY_HIGH;
 2395              		.loc 1 355 19 is_stmt 0 view .LVU780
 2396 0080 0023     		movs	r3, #0
 2397 0082 0D93     		str	r3, [sp, #52]
 356:Src/tim.c     ****   sConfigOC.OCNPolarity = TIM_OCNPOLARITY_HIGH;
 2398              		.loc 1 356 3 is_stmt 1 view .LVU781
 356:Src/tim.c     ****   sConfigOC.OCNPolarity = TIM_OCNPOLARITY_HIGH;
 2399              		.loc 1 356 24 is_stmt 0 view .LVU782
 2400 0084 0E93     		str	r3, [sp, #56]
 357:Src/tim.c     ****   sConfigOC.OCFastMode = TIM_OCFAST_DISABLE;
 2401              		.loc 1 357 3 is_stmt 1 view .LVU783
 357:Src/tim.c     ****   sConfigOC.OCFastMode = TIM_OCFAST_DISABLE;
 2402              		.loc 1 357 25 is_stmt 0 view .LVU784
 2403 0086 0F93     		str	r3, [sp, #60]
 358:Src/tim.c     ****   sConfigOC.OCIdleState = TIM_OCIDLESTATE_RESET;
 2404              		.loc 1 358 3 is_stmt 1 view .LVU785
 358:Src/tim.c     ****   sConfigOC.OCIdleState = TIM_OCIDLESTATE_RESET;
 2405              		.loc 1 358 24 is_stmt 0 view .LVU786
 2406 0088 1093     		str	r3, [sp, #64]
 359:Src/tim.c     ****   sConfigOC.OCNIdleState = TIM_OCNIDLESTATE_RESET;
 2407              		.loc 1 359 3 is_stmt 1 view .LVU787
 359:Src/tim.c     ****   sConfigOC.OCNIdleState = TIM_OCNIDLESTATE_RESET;
 2408              		.loc 1 359 25 is_stmt 0 view .LVU788
 2409 008a 1193     		str	r3, [sp, #68]
 360:Src/tim.c     ****   if (HAL_TIM_PWM_ConfigChannel(&htim8, &sConfigOC, TIM_CHANNEL_2) != HAL_OK)
 2410              		.loc 1 360 3 is_stmt 1 view .LVU789
 360:Src/tim.c     ****   if (HAL_TIM_PWM_ConfigChannel(&htim8, &sConfigOC, TIM_CHANNEL_2) != HAL_OK)
 2411              		.loc 1 360 26 is_stmt 0 view .LVU790
 2412 008c 1293     		str	r3, [sp, #72]
 361:Src/tim.c     ****   {
 2413              		.loc 1 361 3 is_stmt 1 view .LVU791
 361:Src/tim.c     ****   {
 2414              		.loc 1 361 7 is_stmt 0 view .LVU792
 2415 008e 0422     		movs	r2, #4
 2416 0090 0CA9     		add	r1, sp, #48
 2417 0092 1848     		ldr	r0, .L164
 2418 0094 FFF7FEFF 		bl	HAL_TIM_PWM_ConfigChannel
 2419              	.LVL105:
 361:Src/tim.c     ****   {
 2420              		.loc 1 361 6 view .LVU793
 2421 0098 28BB     		cbnz	r0, .L162
 2422              	.L155:
 365:Src/tim.c     ****   sBreakDeadTimeConfig.OffStateIDLEMode = TIM_OSSI_DISABLE;
 2423              		.loc 1 365 3 is_stmt 1 view .LVU794
 365:Src/tim.c     ****   sBreakDeadTimeConfig.OffStateIDLEMode = TIM_OSSI_DISABLE;
 2424              		.loc 1 365 40 is_stmt 0 view .LVU795
 2425 009a 0023     		movs	r3, #0
 2426 009c 0193     		str	r3, [sp, #4]
 366:Src/tim.c     ****   sBreakDeadTimeConfig.LockLevel = TIM_LOCKLEVEL_OFF;
 2427              		.loc 1 366 3 is_stmt 1 view .LVU796
 366:Src/tim.c     ****   sBreakDeadTimeConfig.LockLevel = TIM_LOCKLEVEL_OFF;
 2428              		.loc 1 366 41 is_stmt 0 view .LVU797
 2429 009e 0293     		str	r3, [sp, #8]
 367:Src/tim.c     ****   sBreakDeadTimeConfig.DeadTime = 0;
 2430              		.loc 1 367 3 is_stmt 1 view .LVU798
 367:Src/tim.c     ****   sBreakDeadTimeConfig.DeadTime = 0;
 2431              		.loc 1 367 34 is_stmt 0 view .LVU799
ARM GAS  C:\Users\simon\AppData\Local\Temp\cc9kiOsk.s 			page 66


 2432 00a0 0393     		str	r3, [sp, #12]
 368:Src/tim.c     ****   sBreakDeadTimeConfig.BreakState = TIM_BREAK_DISABLE;
 2433              		.loc 1 368 3 is_stmt 1 view .LVU800
 368:Src/tim.c     ****   sBreakDeadTimeConfig.BreakState = TIM_BREAK_DISABLE;
 2434              		.loc 1 368 33 is_stmt 0 view .LVU801
 2435 00a2 0493     		str	r3, [sp, #16]
 369:Src/tim.c     ****   sBreakDeadTimeConfig.BreakPolarity = TIM_BREAKPOLARITY_HIGH;
 2436              		.loc 1 369 3 is_stmt 1 view .LVU802
 369:Src/tim.c     ****   sBreakDeadTimeConfig.BreakPolarity = TIM_BREAKPOLARITY_HIGH;
 2437              		.loc 1 369 35 is_stmt 0 view .LVU803
 2438 00a4 0593     		str	r3, [sp, #20]
 370:Src/tim.c     ****   sBreakDeadTimeConfig.BreakFilter = 0;
 2439              		.loc 1 370 3 is_stmt 1 view .LVU804
 370:Src/tim.c     ****   sBreakDeadTimeConfig.BreakFilter = 0;
 2440              		.loc 1 370 38 is_stmt 0 view .LVU805
 2441 00a6 4FF40052 		mov	r2, #8192
 2442 00aa 0692     		str	r2, [sp, #24]
 371:Src/tim.c     ****   sBreakDeadTimeConfig.Break2State = TIM_BREAK2_DISABLE;
 2443              		.loc 1 371 3 is_stmt 1 view .LVU806
 371:Src/tim.c     ****   sBreakDeadTimeConfig.Break2State = TIM_BREAK2_DISABLE;
 2444              		.loc 1 371 36 is_stmt 0 view .LVU807
 2445 00ac 0793     		str	r3, [sp, #28]
 372:Src/tim.c     ****   sBreakDeadTimeConfig.Break2Polarity = TIM_BREAK2POLARITY_HIGH;
 2446              		.loc 1 372 3 is_stmt 1 view .LVU808
 372:Src/tim.c     ****   sBreakDeadTimeConfig.Break2Polarity = TIM_BREAK2POLARITY_HIGH;
 2447              		.loc 1 372 36 is_stmt 0 view .LVU809
 2448 00ae 0893     		str	r3, [sp, #32]
 373:Src/tim.c     ****   sBreakDeadTimeConfig.Break2Filter = 0;
 2449              		.loc 1 373 3 is_stmt 1 view .LVU810
 373:Src/tim.c     ****   sBreakDeadTimeConfig.Break2Filter = 0;
 2450              		.loc 1 373 39 is_stmt 0 view .LVU811
 2451 00b0 4FF00072 		mov	r2, #33554432
 2452 00b4 0992     		str	r2, [sp, #36]
 374:Src/tim.c     ****   sBreakDeadTimeConfig.AutomaticOutput = TIM_AUTOMATICOUTPUT_DISABLE;
 2453              		.loc 1 374 3 is_stmt 1 view .LVU812
 374:Src/tim.c     ****   sBreakDeadTimeConfig.AutomaticOutput = TIM_AUTOMATICOUTPUT_DISABLE;
 2454              		.loc 1 374 37 is_stmt 0 view .LVU813
 2455 00b6 0A93     		str	r3, [sp, #40]
 375:Src/tim.c     ****   if (HAL_TIMEx_ConfigBreakDeadTime(&htim8, &sBreakDeadTimeConfig) != HAL_OK)
 2456              		.loc 1 375 3 is_stmt 1 view .LVU814
 375:Src/tim.c     ****   if (HAL_TIMEx_ConfigBreakDeadTime(&htim8, &sBreakDeadTimeConfig) != HAL_OK)
 2457              		.loc 1 375 40 is_stmt 0 view .LVU815
 2458 00b8 0B93     		str	r3, [sp, #44]
 376:Src/tim.c     ****   {
 2459              		.loc 1 376 3 is_stmt 1 view .LVU816
 376:Src/tim.c     ****   {
 2460              		.loc 1 376 7 is_stmt 0 view .LVU817
 2461 00ba 01A9     		add	r1, sp, #4
 2462 00bc 0D48     		ldr	r0, .L164
 2463 00be FFF7FEFF 		bl	HAL_TIMEx_ConfigBreakDeadTime
 2464              	.LVL106:
 376:Src/tim.c     ****   {
 2465              		.loc 1 376 6 view .LVU818
 2466 00c2 98B9     		cbnz	r0, .L163
 2467              	.L156:
 383:Src/tim.c     **** 
 2468              		.loc 1 383 3 is_stmt 1 view .LVU819
ARM GAS  C:\Users\simon\AppData\Local\Temp\cc9kiOsk.s 			page 67


 2469 00c4 0B48     		ldr	r0, .L164
 2470 00c6 FFF7FEFF 		bl	HAL_TIM_MspPostInit
 2471              	.LVL107:
 385:Src/tim.c     **** /* TIM12 init function */
 2472              		.loc 1 385 1 is_stmt 0 view .LVU820
 2473 00ca 1AB0     		add	sp, sp, #104
 2474              	.LCFI53:
 2475              		.cfi_remember_state
 2476              		.cfi_def_cfa_offset 8
 2477              		@ sp needed
 2478 00cc 10BD     		pop	{r4, pc}
 2479              	.L158:
 2480              	.LCFI54:
 2481              		.cfi_restore_state
 336:Src/tim.c     ****   }
 2482              		.loc 1 336 5 is_stmt 1 view .LVU821
 2483 00ce FFF7FEFF 		bl	Error_Handler
 2484              	.LVL108:
 2485 00d2 BBE7     		b	.L151
 2486              	.L159:
 341:Src/tim.c     ****   }
 2487              		.loc 1 341 5 view .LVU822
 2488 00d4 FFF7FEFF 		bl	Error_Handler
 2489              	.LVL109:
 2490 00d8 C1E7     		b	.L152
 2491              	.L160:
 345:Src/tim.c     ****   }
 2492              		.loc 1 345 5 view .LVU823
 2493 00da FFF7FEFF 		bl	Error_Handler
 2494              	.LVL110:
 2495 00de C3E7     		b	.L153
 2496              	.L161:
 352:Src/tim.c     ****   }
 2497              		.loc 1 352 5 view .LVU824
 2498 00e0 FFF7FEFF 		bl	Error_Handler
 2499              	.LVL111:
 2500 00e4 CAE7     		b	.L154
 2501              	.L162:
 363:Src/tim.c     ****   }
 2502              		.loc 1 363 5 view .LVU825
 2503 00e6 FFF7FEFF 		bl	Error_Handler
 2504              	.LVL112:
 2505 00ea D6E7     		b	.L155
 2506              	.L163:
 378:Src/tim.c     ****   }
 2507              		.loc 1 378 5 view .LVU826
 2508 00ec FFF7FEFF 		bl	Error_Handler
 2509              	.LVL113:
 2510 00f0 E8E7     		b	.L156
 2511              	.L165:
 2512 00f2 00BF     		.align	2
 2513              	.L164:
 2514 00f4 00000000 		.word	.LANCHOR11
 2515 00f8 00040140 		.word	1073808384
 2516              		.cfi_endproc
 2517              	.LFE337:
 2519              		.section	.text.MX_TIM14_Init,"ax",%progbits
ARM GAS  C:\Users\simon\AppData\Local\Temp\cc9kiOsk.s 			page 68


 2520              		.align	1
 2521              		.global	MX_TIM14_Init
 2522              		.syntax unified
 2523              		.thumb
 2524              		.thumb_func
 2526              	MX_TIM14_Init:
 2527              	.LFB340:
 466:Src/tim.c     **** 
 2528              		.loc 1 466 1 view -0
 2529              		.cfi_startproc
 2530              		@ args = 0, pretend = 0, frame = 32
 2531              		@ frame_needed = 0, uses_anonymous_args = 0
 2532 0000 00B5     		push	{lr}
 2533              	.LCFI55:
 2534              		.cfi_def_cfa_offset 4
 2535              		.cfi_offset 14, -4
 2536 0002 89B0     		sub	sp, sp, #36
 2537              	.LCFI56:
 2538              		.cfi_def_cfa_offset 40
 472:Src/tim.c     **** 
 2539              		.loc 1 472 3 view .LVU828
 472:Src/tim.c     **** 
 2540              		.loc 1 472 22 is_stmt 0 view .LVU829
 2541 0004 0023     		movs	r3, #0
 2542 0006 0193     		str	r3, [sp, #4]
 2543 0008 0293     		str	r3, [sp, #8]
 2544 000a 0393     		str	r3, [sp, #12]
 2545 000c 0493     		str	r3, [sp, #16]
 2546 000e 0593     		str	r3, [sp, #20]
 2547 0010 0693     		str	r3, [sp, #24]
 2548 0012 0793     		str	r3, [sp, #28]
 477:Src/tim.c     ****   htim14.Init.Prescaler = 0;
 2549              		.loc 1 477 3 is_stmt 1 view .LVU830
 477:Src/tim.c     ****   htim14.Init.Prescaler = 0;
 2550              		.loc 1 477 19 is_stmt 0 view .LVU831
 2551 0014 1548     		ldr	r0, .L174
 2552 0016 164A     		ldr	r2, .L174+4
 2553 0018 0260     		str	r2, [r0]
 478:Src/tim.c     ****   htim14.Init.CounterMode = TIM_COUNTERMODE_UP;
 2554              		.loc 1 478 3 is_stmt 1 view .LVU832
 478:Src/tim.c     ****   htim14.Init.CounterMode = TIM_COUNTERMODE_UP;
 2555              		.loc 1 478 25 is_stmt 0 view .LVU833
 2556 001a 4360     		str	r3, [r0, #4]
 479:Src/tim.c     ****   htim14.Init.Period = 65535;
 2557              		.loc 1 479 3 is_stmt 1 view .LVU834
 479:Src/tim.c     ****   htim14.Init.Period = 65535;
 2558              		.loc 1 479 27 is_stmt 0 view .LVU835
 2559 001c 8360     		str	r3, [r0, #8]
 480:Src/tim.c     ****   htim14.Init.ClockDivision = TIM_CLOCKDIVISION_DIV1;
 2560              		.loc 1 480 3 is_stmt 1 view .LVU836
 480:Src/tim.c     ****   htim14.Init.ClockDivision = TIM_CLOCKDIVISION_DIV1;
 2561              		.loc 1 480 22 is_stmt 0 view .LVU837
 2562 001e 4FF6FF72 		movw	r2, #65535
 2563 0022 C260     		str	r2, [r0, #12]
 481:Src/tim.c     ****   htim14.Init.AutoReloadPreload = TIM_AUTORELOAD_PRELOAD_DISABLE;
 2564              		.loc 1 481 3 is_stmt 1 view .LVU838
 481:Src/tim.c     ****   htim14.Init.AutoReloadPreload = TIM_AUTORELOAD_PRELOAD_DISABLE;
ARM GAS  C:\Users\simon\AppData\Local\Temp\cc9kiOsk.s 			page 69


 2565              		.loc 1 481 29 is_stmt 0 view .LVU839
 2566 0024 0361     		str	r3, [r0, #16]
 482:Src/tim.c     ****   if (HAL_TIM_Base_Init(&htim14) != HAL_OK)
 2567              		.loc 1 482 3 is_stmt 1 view .LVU840
 482:Src/tim.c     ****   if (HAL_TIM_Base_Init(&htim14) != HAL_OK)
 2568              		.loc 1 482 33 is_stmt 0 view .LVU841
 2569 0026 8361     		str	r3, [r0, #24]
 483:Src/tim.c     ****   {
 2570              		.loc 1 483 3 is_stmt 1 view .LVU842
 483:Src/tim.c     ****   {
 2571              		.loc 1 483 7 is_stmt 0 view .LVU843
 2572 0028 FFF7FEFF 		bl	HAL_TIM_Base_Init
 2573              	.LVL114:
 483:Src/tim.c     ****   {
 2574              		.loc 1 483 6 view .LVU844
 2575 002c A0B9     		cbnz	r0, .L171
 2576              	.L167:
 487:Src/tim.c     ****   {
 2577              		.loc 1 487 3 is_stmt 1 view .LVU845
 487:Src/tim.c     ****   {
 2578              		.loc 1 487 7 is_stmt 0 view .LVU846
 2579 002e 0F48     		ldr	r0, .L174
 2580 0030 FFF7FEFF 		bl	HAL_TIM_PWM_Init
 2581              	.LVL115:
 487:Src/tim.c     ****   {
 2582              		.loc 1 487 6 view .LVU847
 2583 0034 98B9     		cbnz	r0, .L172
 2584              	.L168:
 491:Src/tim.c     ****   sConfigOC.Pulse = 0;
 2585              		.loc 1 491 3 is_stmt 1 view .LVU848
 491:Src/tim.c     ****   sConfigOC.Pulse = 0;
 2586              		.loc 1 491 20 is_stmt 0 view .LVU849
 2587 0036 6023     		movs	r3, #96
 2588 0038 0193     		str	r3, [sp, #4]
 492:Src/tim.c     ****   sConfigOC.OCPolarity = TIM_OCPOLARITY_HIGH;
 2589              		.loc 1 492 3 is_stmt 1 view .LVU850
 492:Src/tim.c     ****   sConfigOC.OCPolarity = TIM_OCPOLARITY_HIGH;
 2590              		.loc 1 492 19 is_stmt 0 view .LVU851
 2591 003a 0022     		movs	r2, #0
 2592 003c 0292     		str	r2, [sp, #8]
 493:Src/tim.c     ****   sConfigOC.OCFastMode = TIM_OCFAST_DISABLE;
 2593              		.loc 1 493 3 is_stmt 1 view .LVU852
 493:Src/tim.c     ****   sConfigOC.OCFastMode = TIM_OCFAST_DISABLE;
 2594              		.loc 1 493 24 is_stmt 0 view .LVU853
 2595 003e 0392     		str	r2, [sp, #12]
 494:Src/tim.c     ****   if (HAL_TIM_PWM_ConfigChannel(&htim14, &sConfigOC, TIM_CHANNEL_1) != HAL_OK)
 2596              		.loc 1 494 3 is_stmt 1 view .LVU854
 494:Src/tim.c     ****   if (HAL_TIM_PWM_ConfigChannel(&htim14, &sConfigOC, TIM_CHANNEL_1) != HAL_OK)
 2597              		.loc 1 494 24 is_stmt 0 view .LVU855
 2598 0040 0592     		str	r2, [sp, #20]
 495:Src/tim.c     ****   {
 2599              		.loc 1 495 3 is_stmt 1 view .LVU856
 495:Src/tim.c     ****   {
 2600              		.loc 1 495 7 is_stmt 0 view .LVU857
 2601 0042 01A9     		add	r1, sp, #4
 2602 0044 0948     		ldr	r0, .L174
 2603 0046 FFF7FEFF 		bl	HAL_TIM_PWM_ConfigChannel
ARM GAS  C:\Users\simon\AppData\Local\Temp\cc9kiOsk.s 			page 70


 2604              	.LVL116:
 495:Src/tim.c     ****   {
 2605              		.loc 1 495 6 view .LVU858
 2606 004a 58B9     		cbnz	r0, .L173
 2607              	.L169:
 502:Src/tim.c     **** 
 2608              		.loc 1 502 3 is_stmt 1 view .LVU859
 2609 004c 0748     		ldr	r0, .L174
 2610 004e FFF7FEFF 		bl	HAL_TIM_MspPostInit
 2611              	.LVL117:
 504:Src/tim.c     **** /* TIM15 init function */
 2612              		.loc 1 504 1 is_stmt 0 view .LVU860
 2613 0052 09B0     		add	sp, sp, #36
 2614              	.LCFI57:
 2615              		.cfi_remember_state
 2616              		.cfi_def_cfa_offset 4
 2617              		@ sp needed
 2618 0054 5DF804FB 		ldr	pc, [sp], #4
 2619              	.L171:
 2620              	.LCFI58:
 2621              		.cfi_restore_state
 485:Src/tim.c     ****   }
 2622              		.loc 1 485 5 is_stmt 1 view .LVU861
 2623 0058 FFF7FEFF 		bl	Error_Handler
 2624              	.LVL118:
 2625 005c E7E7     		b	.L167
 2626              	.L172:
 489:Src/tim.c     ****   }
 2627              		.loc 1 489 5 view .LVU862
 2628 005e FFF7FEFF 		bl	Error_Handler
 2629              	.LVL119:
 2630 0062 E8E7     		b	.L168
 2631              	.L173:
 497:Src/tim.c     ****   }
 2632              		.loc 1 497 5 view .LVU863
 2633 0064 FFF7FEFF 		bl	Error_Handler
 2634              	.LVL120:
 2635 0068 F0E7     		b	.L169
 2636              	.L175:
 2637 006a 00BF     		.align	2
 2638              	.L174:
 2639 006c 00000000 		.word	.LANCHOR12
 2640 0070 00200040 		.word	1073750016
 2641              		.cfi_endproc
 2642              	.LFE340:
 2644              		.section	.text.HAL_TIM_Base_MspDeInit,"ax",%progbits
 2645              		.align	1
 2646              		.global	HAL_TIM_Base_MspDeInit
 2647              		.syntax unified
 2648              		.thumb
 2649              		.thumb_func
 2651              	HAL_TIM_Base_MspDeInit:
 2652              	.LVL121:
 2653              	.LFB348:
 915:Src/tim.c     **** 
 916:Src/tim.c     **** void HAL_TIM_Base_MspDeInit(TIM_HandleTypeDef* tim_baseHandle)
 917:Src/tim.c     **** {
ARM GAS  C:\Users\simon\AppData\Local\Temp\cc9kiOsk.s 			page 71


 2654              		.loc 1 917 1 view -0
 2655              		.cfi_startproc
 2656              		@ args = 0, pretend = 0, frame = 0
 2657              		@ frame_needed = 0, uses_anonymous_args = 0
 2658              		.loc 1 917 1 is_stmt 0 view .LVU865
 2659 0000 08B5     		push	{r3, lr}
 2660              	.LCFI59:
 2661              		.cfi_def_cfa_offset 8
 2662              		.cfi_offset 3, -8
 2663              		.cfi_offset 14, -4
 918:Src/tim.c     **** 
 919:Src/tim.c     ****   if(tim_baseHandle->Instance==TIM1)
 2664              		.loc 1 919 3 is_stmt 1 view .LVU866
 2665              		.loc 1 919 20 is_stmt 0 view .LVU867
 2666 0002 0368     		ldr	r3, [r0]
 2667              		.loc 1 919 5 view .LVU868
 2668 0004 2D4A     		ldr	r2, .L193
 2669 0006 9342     		cmp	r3, r2
 2670 0008 1CD0     		beq	.L186
 920:Src/tim.c     ****   {
 921:Src/tim.c     ****   /* USER CODE BEGIN TIM1_MspDeInit 0 */
 922:Src/tim.c     **** 
 923:Src/tim.c     ****   /* USER CODE END TIM1_MspDeInit 0 */
 924:Src/tim.c     ****     /* Peripheral clock disable */
 925:Src/tim.c     ****     __HAL_RCC_TIM1_CLK_DISABLE();
 926:Src/tim.c     **** 
 927:Src/tim.c     ****     /* TIM1 interrupt Deinit */
 928:Src/tim.c     ****     HAL_NVIC_DisableIRQ(TIM1_UP_IRQn);
 929:Src/tim.c     ****   /* USER CODE BEGIN TIM1_MspDeInit 1 */
 930:Src/tim.c     **** 
 931:Src/tim.c     ****   /* USER CODE END TIM1_MspDeInit 1 */
 932:Src/tim.c     ****   }
 933:Src/tim.c     ****   else if(tim_baseHandle->Instance==TIM6)
 2671              		.loc 1 933 8 is_stmt 1 view .LVU869
 2672              		.loc 1 933 10 is_stmt 0 view .LVU870
 2673 000a 2D4A     		ldr	r2, .L193+4
 2674 000c 9342     		cmp	r3, r2
 2675 000e 24D0     		beq	.L187
 934:Src/tim.c     ****   {
 935:Src/tim.c     ****   /* USER CODE BEGIN TIM6_MspDeInit 0 */
 936:Src/tim.c     **** 
 937:Src/tim.c     ****   /* USER CODE END TIM6_MspDeInit 0 */
 938:Src/tim.c     ****     /* Peripheral clock disable */
 939:Src/tim.c     ****     __HAL_RCC_TIM6_CLK_DISABLE();
 940:Src/tim.c     ****   /* USER CODE BEGIN TIM6_MspDeInit 1 */
 941:Src/tim.c     **** 
 942:Src/tim.c     ****   /* USER CODE END TIM6_MspDeInit 1 */
 943:Src/tim.c     ****   }
 944:Src/tim.c     ****   else if(tim_baseHandle->Instance==TIM7)
 2676              		.loc 1 944 8 is_stmt 1 view .LVU871
 2677              		.loc 1 944 10 is_stmt 0 view .LVU872
 2678 0010 2C4A     		ldr	r2, .L193+8
 2679 0012 9342     		cmp	r3, r2
 2680 0014 29D0     		beq	.L188
 945:Src/tim.c     ****   {
 946:Src/tim.c     ****   /* USER CODE BEGIN TIM7_MspDeInit 0 */
 947:Src/tim.c     **** 
ARM GAS  C:\Users\simon\AppData\Local\Temp\cc9kiOsk.s 			page 72


 948:Src/tim.c     ****   /* USER CODE END TIM7_MspDeInit 0 */
 949:Src/tim.c     ****     /* Peripheral clock disable */
 950:Src/tim.c     ****     __HAL_RCC_TIM7_CLK_DISABLE();
 951:Src/tim.c     ****   /* USER CODE BEGIN TIM7_MspDeInit 1 */
 952:Src/tim.c     **** 
 953:Src/tim.c     ****   /* USER CODE END TIM7_MspDeInit 1 */
 954:Src/tim.c     ****   }
 955:Src/tim.c     ****   else if(tim_baseHandle->Instance==TIM8)
 2681              		.loc 1 955 8 is_stmt 1 view .LVU873
 2682              		.loc 1 955 10 is_stmt 0 view .LVU874
 2683 0016 2C4A     		ldr	r2, .L193+12
 2684 0018 9342     		cmp	r3, r2
 2685 001a 2ED0     		beq	.L189
 956:Src/tim.c     ****   {
 957:Src/tim.c     ****   /* USER CODE BEGIN TIM8_MspDeInit 0 */
 958:Src/tim.c     **** 
 959:Src/tim.c     ****   /* USER CODE END TIM8_MspDeInit 0 */
 960:Src/tim.c     ****     /* Peripheral clock disable */
 961:Src/tim.c     ****     __HAL_RCC_TIM8_CLK_DISABLE();
 962:Src/tim.c     ****   /* USER CODE BEGIN TIM8_MspDeInit 1 */
 963:Src/tim.c     **** 
 964:Src/tim.c     ****   /* USER CODE END TIM8_MspDeInit 1 */
 965:Src/tim.c     ****   }
 966:Src/tim.c     ****   else if(tim_baseHandle->Instance==TIM13)
 2686              		.loc 1 966 8 is_stmt 1 view .LVU875
 2687              		.loc 1 966 10 is_stmt 0 view .LVU876
 2688 001c 2B4A     		ldr	r2, .L193+16
 2689 001e 9342     		cmp	r3, r2
 2690 0020 33D0     		beq	.L190
 967:Src/tim.c     ****   {
 968:Src/tim.c     ****   /* USER CODE BEGIN TIM13_MspDeInit 0 */
 969:Src/tim.c     **** 
 970:Src/tim.c     ****   /* USER CODE END TIM13_MspDeInit 0 */
 971:Src/tim.c     ****     /* Peripheral clock disable */
 972:Src/tim.c     ****     __HAL_RCC_TIM13_CLK_DISABLE();
 973:Src/tim.c     ****   /* USER CODE BEGIN TIM13_MspDeInit 1 */
 974:Src/tim.c     **** 
 975:Src/tim.c     ****   /* USER CODE END TIM13_MspDeInit 1 */
 976:Src/tim.c     ****   }
 977:Src/tim.c     ****   else if(tim_baseHandle->Instance==TIM14)
 2691              		.loc 1 977 8 is_stmt 1 view .LVU877
 2692              		.loc 1 977 10 is_stmt 0 view .LVU878
 2693 0022 2B4A     		ldr	r2, .L193+20
 2694 0024 9342     		cmp	r3, r2
 2695 0026 38D0     		beq	.L191
 978:Src/tim.c     ****   {
 979:Src/tim.c     ****   /* USER CODE BEGIN TIM14_MspDeInit 0 */
 980:Src/tim.c     **** 
 981:Src/tim.c     ****   /* USER CODE END TIM14_MspDeInit 0 */
 982:Src/tim.c     ****     /* Peripheral clock disable */
 983:Src/tim.c     ****     __HAL_RCC_TIM14_CLK_DISABLE();
 984:Src/tim.c     ****   /* USER CODE BEGIN TIM14_MspDeInit 1 */
 985:Src/tim.c     **** 
 986:Src/tim.c     ****   /* USER CODE END TIM14_MspDeInit 1 */
 987:Src/tim.c     ****   }
 988:Src/tim.c     ****   else if(tim_baseHandle->Instance==TIM16)
 2696              		.loc 1 988 8 is_stmt 1 view .LVU879
ARM GAS  C:\Users\simon\AppData\Local\Temp\cc9kiOsk.s 			page 73


 2697              		.loc 1 988 10 is_stmt 0 view .LVU880
 2698 0028 2A4A     		ldr	r2, .L193+24
 2699 002a 9342     		cmp	r3, r2
 2700 002c 3DD0     		beq	.L192
 989:Src/tim.c     ****   {
 990:Src/tim.c     ****   /* USER CODE BEGIN TIM16_MspDeInit 0 */
 991:Src/tim.c     **** 
 992:Src/tim.c     ****   /* USER CODE END TIM16_MspDeInit 0 */
 993:Src/tim.c     ****     /* Peripheral clock disable */
 994:Src/tim.c     ****     __HAL_RCC_TIM16_CLK_DISABLE();
 995:Src/tim.c     ****   /* USER CODE BEGIN TIM16_MspDeInit 1 */
 996:Src/tim.c     **** 
 997:Src/tim.c     ****   /* USER CODE END TIM16_MspDeInit 1 */
 998:Src/tim.c     ****   }
 999:Src/tim.c     ****   else if(tim_baseHandle->Instance==TIM17)
 2701              		.loc 1 999 8 is_stmt 1 view .LVU881
 2702              		.loc 1 999 10 is_stmt 0 view .LVU882
 2703 002e 2A4A     		ldr	r2, .L193+28
 2704 0030 9342     		cmp	r3, r2
 2705 0032 19D1     		bne	.L176
1000:Src/tim.c     ****   {
1001:Src/tim.c     ****   /* USER CODE BEGIN TIM17_MspDeInit 0 */
1002:Src/tim.c     **** 
1003:Src/tim.c     ****   /* USER CODE END TIM17_MspDeInit 0 */
1004:Src/tim.c     ****     /* Peripheral clock disable */
1005:Src/tim.c     ****     __HAL_RCC_TIM17_CLK_DISABLE();
 2706              		.loc 1 1005 5 is_stmt 1 view .LVU883
 2707 0034 294A     		ldr	r2, .L193+32
 2708 0036 D2F8F030 		ldr	r3, [r2, #240]
 2709 003a 23F48023 		bic	r3, r3, #262144
 2710 003e C2F8F030 		str	r3, [r2, #240]
1006:Src/tim.c     ****   /* USER CODE BEGIN TIM17_MspDeInit 1 */
1007:Src/tim.c     **** 
1008:Src/tim.c     ****   /* USER CODE END TIM17_MspDeInit 1 */
1009:Src/tim.c     ****   }
1010:Src/tim.c     **** }
 2711              		.loc 1 1010 1 is_stmt 0 view .LVU884
 2712 0042 11E0     		b	.L176
 2713              	.L186:
 925:Src/tim.c     **** 
 2714              		.loc 1 925 5 is_stmt 1 view .LVU885
 2715 0044 254A     		ldr	r2, .L193+32
 2716 0046 D2F8F030 		ldr	r3, [r2, #240]
 2717 004a 23F00103 		bic	r3, r3, #1
 2718 004e C2F8F030 		str	r3, [r2, #240]
 928:Src/tim.c     ****   /* USER CODE BEGIN TIM1_MspDeInit 1 */
 2719              		.loc 1 928 5 view .LVU886
 2720 0052 1920     		movs	r0, #25
 2721              	.LVL122:
 928:Src/tim.c     ****   /* USER CODE BEGIN TIM1_MspDeInit 1 */
 2722              		.loc 1 928 5 is_stmt 0 view .LVU887
 2723 0054 FFF7FEFF 		bl	HAL_NVIC_DisableIRQ
 2724              	.LVL123:
 2725 0058 06E0     		b	.L176
 2726              	.LVL124:
 2727              	.L187:
 939:Src/tim.c     ****   /* USER CODE BEGIN TIM6_MspDeInit 1 */
ARM GAS  C:\Users\simon\AppData\Local\Temp\cc9kiOsk.s 			page 74


 2728              		.loc 1 939 5 is_stmt 1 view .LVU888
 2729 005a 204A     		ldr	r2, .L193+32
 2730 005c D2F8E830 		ldr	r3, [r2, #232]
 2731 0060 23F01003 		bic	r3, r3, #16
 2732 0064 C2F8E830 		str	r3, [r2, #232]
 2733              	.LVL125:
 2734              	.L176:
 2735              		.loc 1 1010 1 is_stmt 0 view .LVU889
 2736 0068 08BD     		pop	{r3, pc}
 2737              	.LVL126:
 2738              	.L188:
 950:Src/tim.c     ****   /* USER CODE BEGIN TIM7_MspDeInit 1 */
 2739              		.loc 1 950 5 is_stmt 1 view .LVU890
 2740 006a 1C4A     		ldr	r2, .L193+32
 2741 006c D2F8E830 		ldr	r3, [r2, #232]
 2742 0070 23F02003 		bic	r3, r3, #32
 2743 0074 C2F8E830 		str	r3, [r2, #232]
 2744 0078 F6E7     		b	.L176
 2745              	.L189:
 961:Src/tim.c     ****   /* USER CODE BEGIN TIM8_MspDeInit 1 */
 2746              		.loc 1 961 5 view .LVU891
 2747 007a 184A     		ldr	r2, .L193+32
 2748 007c D2F8F030 		ldr	r3, [r2, #240]
 2749 0080 23F00203 		bic	r3, r3, #2
 2750 0084 C2F8F030 		str	r3, [r2, #240]
 2751 0088 EEE7     		b	.L176
 2752              	.L190:
 972:Src/tim.c     ****   /* USER CODE BEGIN TIM13_MspDeInit 1 */
 2753              		.loc 1 972 5 view .LVU892
 2754 008a 144A     		ldr	r2, .L193+32
 2755 008c D2F8E830 		ldr	r3, [r2, #232]
 2756 0090 23F08003 		bic	r3, r3, #128
 2757 0094 C2F8E830 		str	r3, [r2, #232]
 2758 0098 E6E7     		b	.L176
 2759              	.L191:
 983:Src/tim.c     ****   /* USER CODE BEGIN TIM14_MspDeInit 1 */
 2760              		.loc 1 983 5 view .LVU893
 2761 009a 104A     		ldr	r2, .L193+32
 2762 009c D2F8E830 		ldr	r3, [r2, #232]
 2763 00a0 23F48073 		bic	r3, r3, #256
 2764 00a4 C2F8E830 		str	r3, [r2, #232]
 2765 00a8 DEE7     		b	.L176
 2766              	.L192:
 994:Src/tim.c     ****   /* USER CODE BEGIN TIM16_MspDeInit 1 */
 2767              		.loc 1 994 5 view .LVU894
 2768 00aa 0C4A     		ldr	r2, .L193+32
 2769 00ac D2F8F030 		ldr	r3, [r2, #240]
 2770 00b0 23F40033 		bic	r3, r3, #131072
 2771 00b4 C2F8F030 		str	r3, [r2, #240]
 2772 00b8 D6E7     		b	.L176
 2773              	.L194:
 2774 00ba 00BF     		.align	2
 2775              	.L193:
 2776 00bc 00000140 		.word	1073807360
 2777 00c0 00100040 		.word	1073745920
 2778 00c4 00140040 		.word	1073746944
 2779 00c8 00040140 		.word	1073808384
ARM GAS  C:\Users\simon\AppData\Local\Temp\cc9kiOsk.s 			page 75


 2780 00cc 001C0040 		.word	1073748992
 2781 00d0 00200040 		.word	1073750016
 2782 00d4 00440140 		.word	1073824768
 2783 00d8 00480140 		.word	1073825792
 2784 00dc 00440258 		.word	1476543488
 2785              		.cfi_endproc
 2786              	.LFE348:
 2788              		.section	.text.HAL_TIM_IC_MspDeInit,"ax",%progbits
 2789              		.align	1
 2790              		.global	HAL_TIM_IC_MspDeInit
 2791              		.syntax unified
 2792              		.thumb
 2793              		.thumb_func
 2795              	HAL_TIM_IC_MspDeInit:
 2796              	.LVL127:
 2797              	.LFB349:
1011:Src/tim.c     **** 
1012:Src/tim.c     **** void HAL_TIM_IC_MspDeInit(TIM_HandleTypeDef* tim_icHandle)
1013:Src/tim.c     **** {
 2798              		.loc 1 1013 1 view -0
 2799              		.cfi_startproc
 2800              		@ args = 0, pretend = 0, frame = 0
 2801              		@ frame_needed = 0, uses_anonymous_args = 0
 2802              		.loc 1 1013 1 is_stmt 0 view .LVU896
 2803 0000 08B5     		push	{r3, lr}
 2804              	.LCFI60:
 2805              		.cfi_def_cfa_offset 8
 2806              		.cfi_offset 3, -8
 2807              		.cfi_offset 14, -4
1014:Src/tim.c     **** 
1015:Src/tim.c     ****   if(tim_icHandle->Instance==TIM2)
 2808              		.loc 1 1015 3 is_stmt 1 view .LVU897
 2809              		.loc 1 1015 18 is_stmt 0 view .LVU898
 2810 0002 0368     		ldr	r3, [r0]
 2811              		.loc 1 1015 5 view .LVU899
 2812 0004 B3F1804F 		cmp	r3, #1073741824
 2813 0008 09D0     		beq	.L201
1016:Src/tim.c     ****   {
1017:Src/tim.c     ****   /* USER CODE BEGIN TIM2_MspDeInit 0 */
1018:Src/tim.c     **** 
1019:Src/tim.c     ****   /* USER CODE END TIM2_MspDeInit 0 */
1020:Src/tim.c     ****     /* Peripheral clock disable */
1021:Src/tim.c     ****     __HAL_RCC_TIM2_CLK_DISABLE();
1022:Src/tim.c     **** 
1023:Src/tim.c     ****     /**TIM2 GPIO Configuration
1024:Src/tim.c     ****     PA2     ------> TIM2_CH3
1025:Src/tim.c     ****     PA0     ------> TIM2_CH1
1026:Src/tim.c     ****     PB11     ------> TIM2_CH4
1027:Src/tim.c     ****     */
1028:Src/tim.c     ****     HAL_GPIO_DeInit(GPIOA, GPIO_PIN_2|GPIO_PIN_0);
1029:Src/tim.c     **** 
1030:Src/tim.c     ****     HAL_GPIO_DeInit(GPIOB, GPIO_PIN_11);
1031:Src/tim.c     **** 
1032:Src/tim.c     ****   /* USER CODE BEGIN TIM2_MspDeInit 1 */
1033:Src/tim.c     **** 
1034:Src/tim.c     ****   /* USER CODE END TIM2_MspDeInit 1 */
1035:Src/tim.c     ****   }
ARM GAS  C:\Users\simon\AppData\Local\Temp\cc9kiOsk.s 			page 76


1036:Src/tim.c     ****   else if(tim_icHandle->Instance==TIM4)
 2814              		.loc 1 1036 8 is_stmt 1 view .LVU900
 2815              		.loc 1 1036 10 is_stmt 0 view .LVU901
 2816 000a 224A     		ldr	r2, .L205
 2817 000c 9342     		cmp	r3, r2
 2818 000e 17D0     		beq	.L202
1037:Src/tim.c     ****   {
1038:Src/tim.c     ****   /* USER CODE BEGIN TIM4_MspDeInit 0 */
1039:Src/tim.c     **** 
1040:Src/tim.c     ****   /* USER CODE END TIM4_MspDeInit 0 */
1041:Src/tim.c     ****     /* Peripheral clock disable */
1042:Src/tim.c     ****     __HAL_RCC_TIM4_CLK_DISABLE();
1043:Src/tim.c     **** 
1044:Src/tim.c     ****     /**TIM4 GPIO Configuration
1045:Src/tim.c     ****     PB6     ------> TIM4_CH1
1046:Src/tim.c     ****     PB8     ------> TIM4_CH3
1047:Src/tim.c     ****     PD13     ------> TIM4_CH2
1048:Src/tim.c     ****     */
1049:Src/tim.c     ****     HAL_GPIO_DeInit(GPIOB, GPIO_PIN_6|GPIO_PIN_8);
1050:Src/tim.c     **** 
1051:Src/tim.c     ****     HAL_GPIO_DeInit(GPIOD, GPIO_PIN_13);
1052:Src/tim.c     **** 
1053:Src/tim.c     ****   /* USER CODE BEGIN TIM4_MspDeInit 1 */
1054:Src/tim.c     **** 
1055:Src/tim.c     ****   /* USER CODE END TIM4_MspDeInit 1 */
1056:Src/tim.c     ****   }
1057:Src/tim.c     ****   else if(tim_icHandle->Instance==TIM12)
 2819              		.loc 1 1057 8 is_stmt 1 view .LVU902
 2820              		.loc 1 1057 10 is_stmt 0 view .LVU903
 2821 0010 214A     		ldr	r2, .L205+4
 2822 0012 9342     		cmp	r3, r2
 2823 0014 26D0     		beq	.L203
1058:Src/tim.c     ****   {
1059:Src/tim.c     ****   /* USER CODE BEGIN TIM12_MspDeInit 0 */
1060:Src/tim.c     **** 
1061:Src/tim.c     ****   /* USER CODE END TIM12_MspDeInit 0 */
1062:Src/tim.c     ****     /* Peripheral clock disable */
1063:Src/tim.c     ****     __HAL_RCC_TIM12_CLK_DISABLE();
1064:Src/tim.c     **** 
1065:Src/tim.c     ****     /**TIM12 GPIO Configuration
1066:Src/tim.c     ****     PH6     ------> TIM12_CH1
1067:Src/tim.c     ****     */
1068:Src/tim.c     ****     HAL_GPIO_DeInit(GPIOH, GPIO_PIN_6);
1069:Src/tim.c     **** 
1070:Src/tim.c     ****   /* USER CODE BEGIN TIM12_MspDeInit 1 */
1071:Src/tim.c     **** 
1072:Src/tim.c     ****   /* USER CODE END TIM12_MspDeInit 1 */
1073:Src/tim.c     ****   }
1074:Src/tim.c     ****   else if(tim_icHandle->Instance==TIM15)
 2824              		.loc 1 1074 8 is_stmt 1 view .LVU904
 2825              		.loc 1 1074 10 is_stmt 0 view .LVU905
 2826 0016 214A     		ldr	r2, .L205+8
 2827 0018 9342     		cmp	r3, r2
 2828 001a 2FD0     		beq	.L204
 2829              	.LVL128:
 2830              	.L195:
1075:Src/tim.c     ****   {
ARM GAS  C:\Users\simon\AppData\Local\Temp\cc9kiOsk.s 			page 77


1076:Src/tim.c     ****   /* USER CODE BEGIN TIM15_MspDeInit 0 */
1077:Src/tim.c     **** 
1078:Src/tim.c     ****   /* USER CODE END TIM15_MspDeInit 0 */
1079:Src/tim.c     ****     /* Peripheral clock disable */
1080:Src/tim.c     ****     __HAL_RCC_TIM15_CLK_DISABLE();
1081:Src/tim.c     **** 
1082:Src/tim.c     ****     /**TIM15 GPIO Configuration
1083:Src/tim.c     ****     PE6     ------> TIM15_CH2
1084:Src/tim.c     ****     */
1085:Src/tim.c     ****     HAL_GPIO_DeInit(GPIOE, GPIO_PIN_6);
1086:Src/tim.c     **** 
1087:Src/tim.c     ****   /* USER CODE BEGIN TIM15_MspDeInit 1 */
1088:Src/tim.c     **** 
1089:Src/tim.c     ****   /* USER CODE END TIM15_MspDeInit 1 */
1090:Src/tim.c     ****   }
1091:Src/tim.c     **** }
 2831              		.loc 1 1091 1 view .LVU906
 2832 001c 08BD     		pop	{r3, pc}
 2833              	.LVL129:
 2834              	.L201:
1021:Src/tim.c     **** 
 2835              		.loc 1 1021 5 is_stmt 1 view .LVU907
 2836 001e 204A     		ldr	r2, .L205+12
 2837 0020 D2F8E830 		ldr	r3, [r2, #232]
 2838 0024 23F00103 		bic	r3, r3, #1
 2839 0028 C2F8E830 		str	r3, [r2, #232]
1028:Src/tim.c     **** 
 2840              		.loc 1 1028 5 view .LVU908
 2841 002c 0521     		movs	r1, #5
 2842 002e 1D48     		ldr	r0, .L205+16
 2843              	.LVL130:
1028:Src/tim.c     **** 
 2844              		.loc 1 1028 5 is_stmt 0 view .LVU909
 2845 0030 FFF7FEFF 		bl	HAL_GPIO_DeInit
 2846              	.LVL131:
1030:Src/tim.c     **** 
 2847              		.loc 1 1030 5 is_stmt 1 view .LVU910
 2848 0034 4FF40061 		mov	r1, #2048
 2849 0038 1B48     		ldr	r0, .L205+20
 2850 003a FFF7FEFF 		bl	HAL_GPIO_DeInit
 2851              	.LVL132:
 2852 003e EDE7     		b	.L195
 2853              	.LVL133:
 2854              	.L202:
1042:Src/tim.c     **** 
 2855              		.loc 1 1042 5 view .LVU911
 2856 0040 174A     		ldr	r2, .L205+12
 2857 0042 D2F8E830 		ldr	r3, [r2, #232]
 2858 0046 23F00403 		bic	r3, r3, #4
 2859 004a C2F8E830 		str	r3, [r2, #232]
1049:Src/tim.c     **** 
 2860              		.loc 1 1049 5 view .LVU912
 2861 004e 4FF4A071 		mov	r1, #320
 2862 0052 1548     		ldr	r0, .L205+20
 2863              	.LVL134:
1049:Src/tim.c     **** 
 2864              		.loc 1 1049 5 is_stmt 0 view .LVU913
ARM GAS  C:\Users\simon\AppData\Local\Temp\cc9kiOsk.s 			page 78


 2865 0054 FFF7FEFF 		bl	HAL_GPIO_DeInit
 2866              	.LVL135:
1051:Src/tim.c     **** 
 2867              		.loc 1 1051 5 is_stmt 1 view .LVU914
 2868 0058 4FF40051 		mov	r1, #8192
 2869 005c 1348     		ldr	r0, .L205+24
 2870 005e FFF7FEFF 		bl	HAL_GPIO_DeInit
 2871              	.LVL136:
 2872 0062 DBE7     		b	.L195
 2873              	.LVL137:
 2874              	.L203:
1063:Src/tim.c     **** 
 2875              		.loc 1 1063 5 view .LVU915
 2876 0064 0E4A     		ldr	r2, .L205+12
 2877 0066 D2F8E830 		ldr	r3, [r2, #232]
 2878 006a 23F04003 		bic	r3, r3, #64
 2879 006e C2F8E830 		str	r3, [r2, #232]
1068:Src/tim.c     **** 
 2880              		.loc 1 1068 5 view .LVU916
 2881 0072 4021     		movs	r1, #64
 2882 0074 0E48     		ldr	r0, .L205+28
 2883              	.LVL138:
1068:Src/tim.c     **** 
 2884              		.loc 1 1068 5 is_stmt 0 view .LVU917
 2885 0076 FFF7FEFF 		bl	HAL_GPIO_DeInit
 2886              	.LVL139:
 2887 007a CFE7     		b	.L195
 2888              	.LVL140:
 2889              	.L204:
1080:Src/tim.c     **** 
 2890              		.loc 1 1080 5 is_stmt 1 view .LVU918
 2891 007c 084A     		ldr	r2, .L205+12
 2892 007e D2F8F030 		ldr	r3, [r2, #240]
 2893 0082 23F48033 		bic	r3, r3, #65536
 2894 0086 C2F8F030 		str	r3, [r2, #240]
1085:Src/tim.c     **** 
 2895              		.loc 1 1085 5 view .LVU919
 2896 008a 4021     		movs	r1, #64
 2897 008c 0948     		ldr	r0, .L205+32
 2898              	.LVL141:
1085:Src/tim.c     **** 
 2899              		.loc 1 1085 5 is_stmt 0 view .LVU920
 2900 008e FFF7FEFF 		bl	HAL_GPIO_DeInit
 2901              	.LVL142:
 2902              		.loc 1 1091 1 view .LVU921
 2903 0092 C3E7     		b	.L195
 2904              	.L206:
 2905              		.align	2
 2906              	.L205:
 2907 0094 00080040 		.word	1073743872
 2908 0098 00180040 		.word	1073747968
 2909 009c 00400140 		.word	1073823744
 2910 00a0 00440258 		.word	1476543488
 2911 00a4 00000258 		.word	1476526080
 2912 00a8 00040258 		.word	1476527104
 2913 00ac 000C0258 		.word	1476529152
 2914 00b0 001C0258 		.word	1476533248
ARM GAS  C:\Users\simon\AppData\Local\Temp\cc9kiOsk.s 			page 79


 2915 00b4 00100258 		.word	1476530176
 2916              		.cfi_endproc
 2917              	.LFE349:
 2919              		.section	.text.HAL_TIM_Encoder_MspDeInit,"ax",%progbits
 2920              		.align	1
 2921              		.global	HAL_TIM_Encoder_MspDeInit
 2922              		.syntax unified
 2923              		.thumb
 2924              		.thumb_func
 2926              	HAL_TIM_Encoder_MspDeInit:
 2927              	.LVL143:
 2928              	.LFB350:
1092:Src/tim.c     **** 
1093:Src/tim.c     **** void HAL_TIM_Encoder_MspDeInit(TIM_HandleTypeDef* tim_encoderHandle)
1094:Src/tim.c     **** {
 2929              		.loc 1 1094 1 is_stmt 1 view -0
 2930              		.cfi_startproc
 2931              		@ args = 0, pretend = 0, frame = 0
 2932              		@ frame_needed = 0, uses_anonymous_args = 0
 2933              		.loc 1 1094 1 is_stmt 0 view .LVU923
 2934 0000 08B5     		push	{r3, lr}
 2935              	.LCFI61:
 2936              		.cfi_def_cfa_offset 8
 2937              		.cfi_offset 3, -8
 2938              		.cfi_offset 14, -4
1095:Src/tim.c     **** 
1096:Src/tim.c     ****   if(tim_encoderHandle->Instance==TIM5)
 2939              		.loc 1 1096 3 is_stmt 1 view .LVU924
 2940              		.loc 1 1096 23 is_stmt 0 view .LVU925
 2941 0002 0268     		ldr	r2, [r0]
 2942              		.loc 1 1096 5 view .LVU926
 2943 0004 0A4B     		ldr	r3, .L211
 2944 0006 9A42     		cmp	r2, r3
 2945 0008 00D0     		beq	.L210
 2946              	.LVL144:
 2947              	.L207:
1097:Src/tim.c     ****   {
1098:Src/tim.c     ****   /* USER CODE BEGIN TIM5_MspDeInit 0 */
1099:Src/tim.c     **** 
1100:Src/tim.c     ****   /* USER CODE END TIM5_MspDeInit 0 */
1101:Src/tim.c     ****     /* Peripheral clock disable */
1102:Src/tim.c     ****     __HAL_RCC_TIM5_CLK_DISABLE();
1103:Src/tim.c     **** 
1104:Src/tim.c     ****     /**TIM5 GPIO Configuration
1105:Src/tim.c     ****     PA1     ------> TIM5_CH2
1106:Src/tim.c     ****     PH10     ------> TIM5_CH1
1107:Src/tim.c     ****     */
1108:Src/tim.c     ****     HAL_GPIO_DeInit(GPIOA, GPIO_PIN_1);
1109:Src/tim.c     **** 
1110:Src/tim.c     ****     HAL_GPIO_DeInit(GPIOH, GPIO_PIN_10);
1111:Src/tim.c     **** 
1112:Src/tim.c     ****   /* USER CODE BEGIN TIM5_MspDeInit 1 */
1113:Src/tim.c     **** 
1114:Src/tim.c     ****   /* USER CODE END TIM5_MspDeInit 1 */
1115:Src/tim.c     ****   }
1116:Src/tim.c     **** }
 2948              		.loc 1 1116 1 view .LVU927
ARM GAS  C:\Users\simon\AppData\Local\Temp\cc9kiOsk.s 			page 80


 2949 000a 08BD     		pop	{r3, pc}
 2950              	.LVL145:
 2951              	.L210:
1102:Src/tim.c     **** 
 2952              		.loc 1 1102 5 is_stmt 1 view .LVU928
 2953 000c 094A     		ldr	r2, .L211+4
 2954 000e D2F8E830 		ldr	r3, [r2, #232]
 2955 0012 23F00803 		bic	r3, r3, #8
 2956 0016 C2F8E830 		str	r3, [r2, #232]
1108:Src/tim.c     **** 
 2957              		.loc 1 1108 5 view .LVU929
 2958 001a 0221     		movs	r1, #2
 2959 001c 0648     		ldr	r0, .L211+8
 2960              	.LVL146:
1108:Src/tim.c     **** 
 2961              		.loc 1 1108 5 is_stmt 0 view .LVU930
 2962 001e FFF7FEFF 		bl	HAL_GPIO_DeInit
 2963              	.LVL147:
1110:Src/tim.c     **** 
 2964              		.loc 1 1110 5 is_stmt 1 view .LVU931
 2965 0022 4FF48061 		mov	r1, #1024
 2966 0026 0548     		ldr	r0, .L211+12
 2967 0028 FFF7FEFF 		bl	HAL_GPIO_DeInit
 2968              	.LVL148:
 2969              		.loc 1 1116 1 is_stmt 0 view .LVU932
 2970 002c EDE7     		b	.L207
 2971              	.L212:
 2972 002e 00BF     		.align	2
 2973              	.L211:
 2974 0030 000C0040 		.word	1073744896
 2975 0034 00440258 		.word	1476543488
 2976 0038 00000258 		.word	1476526080
 2977 003c 001C0258 		.word	1476533248
 2978              		.cfi_endproc
 2979              	.LFE350:
 2981              		.global	htim17
 2982              		.global	htim16
 2983              		.global	htim15
 2984              		.global	htim14
 2985              		.global	htim13
 2986              		.global	htim12
 2987              		.global	htim8
 2988              		.global	htim7
 2989              		.global	htim6
 2990              		.global	htim5
 2991              		.global	htim4
 2992              		.global	htim2
 2993              		.global	htim1
 2994              		.section	.bss.htim1,"aw",%nobits
 2995              		.align	2
 2996              		.set	.LANCHOR0,. + 0
 2999              	htim1:
 3000 0000 00000000 		.space	76
 3000      00000000 
 3000      00000000 
 3000      00000000 
 3000      00000000 
ARM GAS  C:\Users\simon\AppData\Local\Temp\cc9kiOsk.s 			page 81


 3001              		.section	.bss.htim12,"aw",%nobits
 3002              		.align	2
 3003              		.set	.LANCHOR5,. + 0
 3006              	htim12:
 3007 0000 00000000 		.space	76
 3007      00000000 
 3007      00000000 
 3007      00000000 
 3007      00000000 
 3008              		.section	.bss.htim13,"aw",%nobits
 3009              		.align	2
 3010              		.set	.LANCHOR6,. + 0
 3013              	htim13:
 3014 0000 00000000 		.space	76
 3014      00000000 
 3014      00000000 
 3014      00000000 
 3014      00000000 
 3015              		.section	.bss.htim14,"aw",%nobits
 3016              		.align	2
 3017              		.set	.LANCHOR12,. + 0
 3020              	htim14:
 3021 0000 00000000 		.space	76
 3021      00000000 
 3021      00000000 
 3021      00000000 
 3021      00000000 
 3022              		.section	.bss.htim15,"aw",%nobits
 3023              		.align	2
 3024              		.set	.LANCHOR7,. + 0
 3027              	htim15:
 3028 0000 00000000 		.space	76
 3028      00000000 
 3028      00000000 
 3028      00000000 
 3028      00000000 
 3029              		.section	.bss.htim16,"aw",%nobits
 3030              		.align	2
 3031              		.set	.LANCHOR8,. + 0
 3034              	htim16:
 3035 0000 00000000 		.space	76
 3035      00000000 
 3035      00000000 
 3035      00000000 
 3035      00000000 
 3036              		.section	.bss.htim17,"aw",%nobits
 3037              		.align	2
 3038              		.set	.LANCHOR9,. + 0
 3041              	htim17:
 3042 0000 00000000 		.space	76
 3042      00000000 
 3042      00000000 
 3042      00000000 
 3042      00000000 
 3043              		.section	.bss.htim2,"aw",%nobits
 3044              		.align	2
 3045              		.set	.LANCHOR10,. + 0
ARM GAS  C:\Users\simon\AppData\Local\Temp\cc9kiOsk.s 			page 82


 3048              	htim2:
 3049 0000 00000000 		.space	76
 3049      00000000 
 3049      00000000 
 3049      00000000 
 3049      00000000 
 3050              		.section	.bss.htim4,"aw",%nobits
 3051              		.align	2
 3052              		.set	.LANCHOR1,. + 0
 3055              	htim4:
 3056 0000 00000000 		.space	76
 3056      00000000 
 3056      00000000 
 3056      00000000 
 3056      00000000 
 3057              		.section	.bss.htim5,"aw",%nobits
 3058              		.align	2
 3059              		.set	.LANCHOR2,. + 0
 3062              	htim5:
 3063 0000 00000000 		.space	76
 3063      00000000 
 3063      00000000 
 3063      00000000 
 3063      00000000 
 3064              		.section	.bss.htim6,"aw",%nobits
 3065              		.align	2
 3066              		.set	.LANCHOR3,. + 0
 3069              	htim6:
 3070 0000 00000000 		.space	76
 3070      00000000 
 3070      00000000 
 3070      00000000 
 3070      00000000 
 3071              		.section	.bss.htim7,"aw",%nobits
 3072              		.align	2
 3073              		.set	.LANCHOR4,. + 0
 3076              	htim7:
 3077 0000 00000000 		.space	76
 3077      00000000 
 3077      00000000 
 3077      00000000 
 3077      00000000 
 3078              		.section	.bss.htim8,"aw",%nobits
 3079              		.align	2
 3080              		.set	.LANCHOR11,. + 0
 3083              	htim8:
 3084 0000 00000000 		.space	76
 3084      00000000 
 3084      00000000 
 3084      00000000 
 3084      00000000 
 3085              		.text
 3086              	.Letext0:
 3087              		.file 2 "c:\\nes\\arm\\10 2021.10\\arm-none-eabi\\include\\machine\\_default_types.h"
 3088              		.file 3 "c:\\nes\\arm\\10 2021.10\\arm-none-eabi\\include\\sys\\_stdint.h"
 3089              		.file 4 "Drivers/CMSIS/Device/ST/STM32H7xx/Include/stm32h743xx.h"
 3090              		.file 5 "Drivers/STM32H7xx_HAL_Driver/Inc/stm32h7xx_hal_def.h"
ARM GAS  C:\Users\simon\AppData\Local\Temp\cc9kiOsk.s 			page 83


 3091              		.file 6 "Drivers/STM32H7xx_HAL_Driver/Inc/stm32h7xx_hal_gpio.h"
 3092              		.file 7 "Drivers/STM32H7xx_HAL_Driver/Inc/stm32h7xx_hal_dma.h"
 3093              		.file 8 "Drivers/STM32H7xx_HAL_Driver/Inc/stm32h7xx_hal_tim.h"
 3094              		.file 9 "Inc/tim.h"
 3095              		.file 10 "Drivers/STM32H7xx_HAL_Driver/Inc/stm32h7xx_hal_cortex.h"
 3096              		.file 11 "Inc/main.h"
 3097              		.file 12 "Drivers/STM32H7xx_HAL_Driver/Inc/stm32h7xx_hal_tim_ex.h"
 3098              		.file 13 "<built-in>"
ARM GAS  C:\Users\simon\AppData\Local\Temp\cc9kiOsk.s 			page 84

